(dp0
S'MA1'
p1
S'L'
p2
sS'MG23'
p3
g2
sS'EC55'
p4
S'H'
p5
sS'MG21'
p6
g2
sS'MA5'
p7
g2
sS'MG25'
p8
g2
sS'L70'
p9
g2
sS'MG29'
p10
g2
sS'CH50'
p11
g2
sS'B763'
p12
g2
sS'B762'
p13
g2
sS'DEFI'
p14
g2
sS'EPER'
p15
g2
sS'B764'
p16
g2
sS'IR99'
p17
g2
sS'LAST'
p18
g2
sS'TVL4'
p19
g2
sS'J728'
p20
g2
sS'BS60'
p21
g2
sS'D139'
p22
g2
sS'C320'
p23
g2
sS'HD34'
p24
g2
sS'V8SP'
p25
g2
sS'SAKO'
p26
g2
sS'SP7'
p27
g2
sS'TVLB'
p28
g2
sS'A23'
p29
g2
sS'MSAI'
p30
g2
sS'Y11'
p31
g2
sS'Y12'
p32
g2
sS'LMK1'
p33
g2
sS'B29'
p34
g2
sS'B26'
p35
g2
sS'B25'
p36
g2
sS'B24'
p37
g2
sS'B23'
p38
g2
sS'A900'
p39
g2
sS'PK15'
p40
g2
sS'PK11'
p41
g2
sS'PK18'
p42
g2
sS'PK19'
p43
g2
sS'VENT'
p44
g2
sS'C06T'
p45
g2
sS'EAEA'
p46
g2
sS'BE60'
p47
g2
sS'BE65'
p48
g2
sS'A50'
p49
g2
sS'FG01'
p50
g2
sS'AT45'
p51
g2
sS'AT44'
p52
g2
sS'AT43'
p53
g2
sS'ZEP2'
p54
g2
sS'SOKL'
p55
g2
sS'BU81'
p56
g2
sS'BIRD'
p57
g2
sS'P46T'
p58
g2
sS'LA60'
p59
g2
sS'SOLI'
p60
g2
sS'DC3T'
p61
g2
sS'IP26'
p62
g2
sS'DC3S'
p63
g2
sS'LS2'
p64
g2
sS'BDOG'
p65
g2
sS'TFK2'
p66
g2
sS'LS9'
p67
g2
sS'MRAM'
p68
g2
sS'N340'
p69
g2
sS'LM5'
p70
g2
sS'LM7'
p71
g2
sS'LEOP'
p72
g2
sS'RAVN'
p73
g2
sS'A270'
p74
g2
sS'MJ53'
p75
g2
sS'A30B'
p76
g2
sS'BE80'
p77
g2
sS'RVAL'
p78
g5
sS'BE88'
p79
g2
sS'AVAM'
p80
S'A'
p81
sS'C119'
p82
g2
sS'KTOO'
p83
g2
sS'C441'
p84
g2
sS'P68T'
p85
g2
sS'IA51'
p86
g2
sS'IA50'
p87
g2
sS'HUMM'
p88
g2
sS'GLTU'
p89
g2
sS'IA58'
p90
g2
sS'A306'
p91
g2
sS'WH1'
p92
g2
sS'AIGT'
p93
g2
sS'DOVE'
p94
g2
sS'CT4'
p95
g2
sS'PT70'
p96
g2
sS'R185'
p97
g2
sS'PDIG'
p98
g2
sS'CUCA'
p99
g2
sS'AN70'
p100
g2
sS'IL86'
p101
g2
sS'AN72'
p102
g2
sS'D39'
p103
g2
sS'D31'
p104
g2
sS'VVIG'
p105
g2
sS'DH60'
p106
g2
sS'CP75'
p107
g2
sS'JPRO'
p108
g2
sS'H25A'
p109
g2
sS'H25C'
p110
g2
sS'H25B'
p111
g2
sS'PTSS'
p112
g2
sS'CA1T'
p113
g2
sS'RDH2'
p114
g2
sS'MEXP'
p115
g2
sS'CA1P'
p116
g2
sS'HR20'
p117
g2
sS'AR79'
p118
g2
sS'SM19'
p119
g2
sS'HEAD'
p120
g2
sS'BLBU'
p121
g2
sS'CA19'
p122
g2
sS'PTS1'
p123
g2
sS'PTS2'
p124
g2
sS'L6'
p125
g81
sS'L5'
p126
g2
sS'L8'
p127
g2
sS'CL60'
p128
g2
sS'A342'
p129
g2
sS'R722'
p130
g2
sS'R721'
p131
g2
sS'JANU'
p132
g2
sS'MD60'
p133
g5
sS'SB29'
p134
g2
sS'AS02'
p135
g2
sS'SB20'
p136
g2
sS'MD87'
p137
g2
sS'VIMA'
p138
g2
sS'MD83'
p139
g2
sS'MD82'
p140
g2
sS'MD81'
p141
g2
sS'RW19'
p142
g2
sS'MD88'
p143
g2
sS'SU31'
p144
g2
sS'SU38'
p145
g2
sS'DUR5'
p146
g2
sS'CH1'
p147
g2
sS'RELI'
p148
g2
sS'YALE'
p149
g2
sS'ASTR'
p150
g2
sS'HB21'
p151
g2
sS'HB23'
p152
g2
sS'B752'
p153
g2
sS'B753'
p154
g2
sS'DAKH'
p155
g2
sS'W201'
p156
g2
sS'MG31'
p157
g2
sS'CH40'
p158
g2
sS'YURO'
p159
g2
sS'ZIA'
p160
g2
sS'SA3'
p161
g2
sS'SA7'
p162
g2
sS'SA6'
p163
g2
sS'SNAD'
p164
S'G'
p165
sS'SR20'
p166
g2
sS'SR22'
p167
g2
sS'S330'
p168
g5
sS'PL12'
p169
g2
sS'MAVR'
p170
g2
sS'CP60'
p171
g2
sS'CP65'
p172
g2
sS'GY10'
p173
g2
sS'TBR3'
p174
g2
sS'WP47'
p175
g2
sS'UT75'
p176
g2
sS'WP40'
p177
g2
sS'HA31'
p178
g2
sS'TF19'
p179
g2
sS'K8'
p180
g2
sS'HUCO'
p181
g5
sS'PAY2'
p182
g2
sS'PAY3'
p183
g2
sS'BN2P'
p184
g2
sS'PAY1'
p185
g2
sS'PAY4'
p186
g2
sS'GC1'
p187
g2
sS'C04T'
p188
g2
sS'RD03'
p189
g2
sS'IR31'
p190
g2
sS'C190'
p191
g2
sS'Y18T'
p192
g2
sS'SUBA'
p193
g2
sS'UU12'
p194
g2
sS'AT72'
p195
g2
sS'M101'
p196
g2
sS'AT75'
p197
S'L'
p198
sS'PROW'
p199
g2
sS'CRER'
p200
g2
sS'CRES'
p201
g2
sS'SS2P'
p202
g2
sS'BSCA'
p203
g2
sS'J8B'
p204
g2
sS'SS2T'
p205
g2
sS'LM5X'
p206
g2
sS'LARK'
p207
g2
sS'PROC'
p208
g2
sS'SASY'
p209
g2
sS'TU4'
p210
g2
sS'GM17'
p211
g2
sS'PZ4M'
p212
g2
sS'SPA2'
p213
g2
sS'G103'
p214
g2
sS'LANC'
p215
g2
sS'G109'
p216
g2
sS'ARES'
p217
g2
sS'EXPL'
p218
g5
sS'PURS'
p219
g2
sS'TRIN'
p220
g2
sS'TRID'
p221
g2
sS'C72R'
p222
g2
sS'EC6'
p223
g2
sS'BETA'
p224
g2
sS'E110'
p225
g2
sS'G2T1'
p226
g2
sS'TRIS'
p227
g2
sS'NH90'
p228
g5
sS'FA10'
p229
g2
sS'FA11'
p230
g2
sS'NC85'
p231
g2
sS'C123'
p232
g2
sS'C120'
p233
g2
sS'C125'
p234
g2
sS'RBEL'
p235
g2
sS'Q5'
p236
g2
sS'ANST'
p237
g5
sS'DR22'
p238
g2
sS'ANSN'
p239
g2
sS'A310'
p240
g2
sS'A319'
p241
g2
sS'A318'
p242
g2
sS'E200'
p243
g2
sS'CAMP'
p244
g2
sS'SYCA'
p245
g5
sS'I828'
p246
g2
sS'G97'
p247
g2
sS'G96'
p248
g2
sS'K126'
p249
g5
sS'CAML'
p250
g2
sS'AI10'
p251
g2
sS'T160'
p252
g2
sS'SJ30'
p253
g2
sS'PO2'
p254
g2
sS'FIKD'
p255
g2
sS'FIKE'
p256
g2
sS'SKIM'
p257
g81
sS'NT10'
p258
g2
sS'T34T'
p259
g2
sS'ULPA'
p260
g2
sS'T34P'
p261
g2
sS'H43A'
p262
g5
sS'H43B'
p263
g5
sS'TARO'
p264
g2
sS'V10'
p265
g2
sS'ALC1'
p266
g2
sS'CA25'
p267
g2
sS'F22'
p268
g2
sS'LJ28'
p269
g2
sS'LJ24'
p270
g2
sS'LJ25'
p271
g2
sS'KATB'
p272
g2
sS'F28'
p273
g2
sS'LJ23'
p274
g2
sS'ND1T'
p275
g2
sS'L159'
p276
g2
sS'CA3'
p277
g2
sS'DFLY'
p278
g2
sS'AS16'
p279
g2
sS'AS14'
p280
g2
sS'DR10'
p281
g2
sS'CN35'
p282
g2
sS'DFL6'
p283
g2
sS'FA7X'
p284
g198
sS'CE43'
p285
g2
sS'B103'
p286
g81
sS'B105'
p287
g5
sS'CULX'
p288
g2
sS'DC6'
p289
g2
sS'DC7'
p290
g2
sS'CULV'
p291
g2
sS'TUTR'
p292
g2
sS'CULP'
p293
g2
sS'DC3'
p294
g2
sS'MCUL'
p295
g2
sS'D201'
p296
g2
sS'B741'
p297
g2
sS'B743'
p298
g2
sS'B742'
p299
g2
sS'L18'
p300
g2
sS'B744'
p301
g2
sS'L14'
p302
g2
sS'L10'
p303
g2
sS'L11'
p304
g2
sS'L12'
p305
g2
sS'L13'
p306
g2
sS'TBM7'
p307
g2
sS'TBM8'
p308
g198
sS'SUCO'
p309
g5
sS'Z42'
p310
g2
sS'AC11'
p311
g2
sS'B52'
p312
g2
sS'ELPS'
p313
g2
sS'AC4'
p314
g2
sS'BUC'
p315
g2
sS'OVOD'
p316
g2
sS'MGIC'
p317
g2
sS'LOVE'
p318
g2
sS'SAB2'
p319
g2
sS'P136'
p320
g81
sS'EGRT'
p321
g2
sS'S65C'
p322
g5
sS'UT60'
p323
g2
sS'UT65'
p324
g2
sS'B06'
p325
g5
sS'B74S'
p326
g2
sS'B74R'
p327
g2
sS'SAPH'
p328
g2
sS'B74D'
p329
g2
sS'BE19'
p330
g2
sS'OMLA'
p331
g2
sS'IR28'
p332
g2
sS'IR27'
p333
g2
sS'IR25'
p334
g2
sS'IR24'
p335
g2
sS'IR23'
p336
g2
sS'IR22'
p337
g2
sS'IR21'
p338
g2
sS'BULT'
p339
g2
sS'PA34'
p340
g2
sS'HLD4'
p341
g2
sS'PA36'
p342
g2
sS'PA30'
p343
g2
sS'PA31'
p344
g2
sS'PA32'
p345
g2
sS'TD2'
p346
g2
sS'PA38'
p347
g2
sS'QUIC'
p348
g2
sS'S12'
p349
g81
sS'S11'
p350
g2
sS'S10'
p351
g2
sS'M110'
p352
g2
sS'SP20'
p353
g2
sS'S274'
p354
g5
sS'GY20'
p355
g2
sS'L59'
p356
g2
sS'C2'
p357
g2
sS'C1'
p358
g2
sS'C5'
p359
g2
sS'AT6T'
p360
g2
sS'GALX'
p361
g2
sS'ZERO'
p362
g2
sS'MI28'
p363
g5
sS'MI24'
p364
g5
sS'BBIR'
p365
g2
sS'MI26'
p366
g5
sS'I103'
p367
g2
sS'WZER'
p368
g2
sS'TCAT'
p369
g2
sS'G115'
p370
g2
sS'JSQA'
p371
g2
sS'A890'
p372
g2
sS'TMOT'
p373
g2
sS'KM2'
p374
g2
sS'RJ85'
p375
g2
sS'MIMP'
p376
g2
sS'JDOE'
p377
g2
sS'MIMU'
p378
g2
sS'B462'
p379
g2
sS'V500'
p380
g5
sS'HPZL'
p381
g2
sS'PC6T'
p382
g2
sS'KRAH'
p383
g2
sS'RODS'
p384
g2
sS'WA40'
p385
g2
sS'WA41'
p386
g2
sS'WA42'
p387
g2
sS'C135'
p388
g2
sS'S900'
p389
g2
sS'C130'
p390
g2
sS'C133'
p391
g2
sS'FA01'
p392
g2
sS'V1'
p393
g2
sS'WICH'
p394
g2
sS'C421'
p395
g2
sS'C425'
p396
g2
sS'DG15'
p397
g2
sS'N250'
p398
g2
sS'M34V'
p399
g5
sS'A320'
p400
g2
sS'A321'
p401
g2
sS'AVTR'
p402
g81
sS'LAMA'
p403
g5
sS'CNDR'
p404
g2
sS'F900'
p405
g2
sS'P220'
p406
g2
sS'E767'
p407
g2
sS'VEZE'
p408
g2
sS'G73T'
p409
g81
sS'C551'
p410
g2
sS'C550'
p411
g2
sS'ALPI'
p412
g2
sS'NIPR'
p413
g2
sS'T154'
p414
g2
sS'AS2T'
p415
g2
sS'CONI'
p416
g2
sS'RV9'
p417
g2
sS'HCAT'
p418
g2
sS'CAD2'
p419
g2
sS'L200'
p420
g2
sS'P130'
p421
g2
sS'F3F'
p422
g2
sS'AT3T'
p423
g2
sS'KIS4'
p424
g2
sS'CL4G'
p425
g2
sS'KIS2'
p426
g2
sS'E300'
p427
g2
sS'SG92'
p428
g2
sS'CL44'
p429
g2
sS'CL41'
p430
g2
sS'AT3P'
p431
g2
sS'NIBB'
p432
g2
sS'B350'
p433
g2
sS'KRAG'
p434
g2
sS'RV3'
p435
g2
sS'AGSH'
p436
g81
sS'RV7'
p437
g2
sS'RV6'
p438
g2
sS'RV4'
p439
g2
sS'LJ35'
p440
g2
sS'RV8'
p441
g2
sS'ALBU'
p442
g2
sS'OH1'
p443
g5
sS'LJ31'
p444
g2
sS'F600'
p445
g2
sS'DR1'
p446
g2
sS'STLN'
p447
g2
sS'AS22'
p448
g2
sS'SDUS'
p449
g2
sS'CAN4'
p450
g2
sS'AS26'
p451
g2
sS'HT36'
p452
g2
sS'LBUG'
p453
g2
sS'AS25'
p454
g2
sS'METR'
p455
g2
sS'KA26'
p456
g5
sS'KA27'
p457
g5
sS'KA25'
p458
g5
sS'UH12'
p459
g5
sS'JS41'
p460
g2
sS'SURU'
p461
g2
sS'GLAD'
p462
g2
sS'AS20'
p463
g2
sS'CYGT'
p464
g2
sS'UFHT'
p465
g165
sS'FL53'
p466
g2
sS'CJ1'
p467
g2
sS'FL55'
p468
g2
sS'FL54'
p469
g2
sS'XNOS'
p470
g2
sS'FN33'
p471
g81
sS'AS24'
p472
g2
sS'SKRA'
p473
g2
sS'H12T'
p474
g5
sS'WHKN'
p475
g2
sS'CAPL'
p476
g2
sS'SC7'
p477
g2
sS'H2'
p478
g5
sS'MJ55'
p479
g2
sS'SSAB'
p480
g2
sS'KZ2'
p481
g2
sS'KZ3'
p482
g2
sS'KZ7'
p483
g2
sS'KZ4'
p484
g2
sS'KZ8'
p485
g2
sS'B17'
p486
g2
sS'ACAR'
p487
g2
sS'CH7A'
p488
g2
sS'CH7B'
p489
g2
sS'BTUB'
p490
g2
sS'L29'
p491
g2
sS'GEMI'
p492
g2
sS'ATTL'
p493
g2
sS'PK21'
p494
g2
sS'PK20'
p495
g2
sS'PK23'
p496
g2
sS'MYA4'
p497
g2
sS'RGNT'
p498
g2
sS'I16'
p499
g2
sS'A660'
p500
g2
sS'PA27'
p501
g2
sS'NAL2'
p502
g2
sS'PA25'
p503
g2
sS'HUSK'
p504
g2
sS'PA23'
p505
g2
sS'PA22'
p506
g2
sS'CORR'
p507
g2
sS'PA20'
p508
g2
sS'FF82'
p509
g2
sS'F111'
p510
g2
sS'SP18'
p511
g2
sS'SU7'
p512
g2
sS'VTOR'
p513
g2
sS'PRM1'
p514
g2
sS'AVK4'
p515
g2
sS'C14T'
p516
g2
sS'COUG'
p517
g2
sS'D6CR'
p518
g2
sS'DISC'
p519
g2
sS'CICA'
p520
g2
sS'MI38'
p521
g5
sS'MI34'
p522
g5
sS'I115'
p523
g2
sS'I114'
p524
g2
sS'AA5'
p525
g2
sS'VGUL'
p526
g2
sS'G120'
p527
g2
sS'MP20'
p528
g2
sS'WIRR'
p529
g2
sS'AA1'
p530
g2
sS'ARKS'
p531
g2
sS'SHOP'
p532
g2
sS'RK5'
p533
g2
sS'D8'
p534
g2
sS'BEVR'
p535
g2
sS'LNT4'
p536
g2
sS'E170'
p537
g2
sS'SHOE'
p538
g2
sS'PZ26'
p539
g2
sS'LTNG'
p540
g2
sS'SW3'
p541
g2
sS'WA50'
p542
g2
sS'C140'
p543
g2
sS'C141'
p544
g2
sS'C414'
p545
g2
sS'D5'
p546
g2
sS'WESX'
p547
g5
sS'AV68'
p548
g2
sS'SPGY'
p549
g165
sS'I11B'
p550
g2
sS'H47'
p551
g5
sS'H46'
p552
g5
sS'TOUR'
p553
g2
sS'H40'
p554
g2
sS'JUN1'
p555
g2
sS'JUN2'
p556
g2
sS'EN48'
p557
g5
sS'KITI'
p558
g2
sS'N262'
p559
g2
sS'N260'
p560
g2
sS'HW4T'
p561
g165
sS'A333'
p562
g2
sS'A332'
p563
g2
sS'CCOP'
p564
g165
sS'P230'
p565
g2
sS'PT22'
p566
g2
sS'SC01'
p567
g2
sS'C560'
p568
g2
sS'G250'
p569
g198
sS'VAUT'
p570
g2
sS'SL90'
p571
g2
sS'DNGO'
p572
g81
sS'T144'
p573
g2
sS'T415'
p574
g2
sS'B214'
p575
g5
sS'T411'
p576
g2
sS'DC86'
p577
g2
sS'G59'
p578
g2
sS'LACO'
p579
g2
sS'F117'
p580
g2
sS'CJ6'
p581
g2
sS'TEX2'
p582
g2
sS'HR10'
p583
g2
sS'E314'
p584
g2
sS'CL30'
p585
g2
sS'VJ22'
p586
g81
sS'BSTR'
p587
g2
sS'Z50'
p588
g2
sS'ALO2'
p589
g5
sS'ALO3'
p590
g5
sS'M7'
p591
g2
sS'M6'
p592
g2
sS'N110'
p593
g2
sS'UH1'
p594
g5
sS'H207'
p595
g2
sS'H202'
p596
g2
sS'M8'
p597
g2
sS'OUDE'
p598
g2
sS'G15T'
p599
g2
sS'F5'
p600
g2
sS'E400'
p601
g2
sS'P19'
p602
g2
sS'AS32'
p603
g5
sS'M28'
p604
g2
sS'COOT'
p605
g81
sS'M24'
p606
g2
sS'JS31'
p607
g2
sS'M26'
p608
g2
sS'M21'
p609
g2
sS'M22'
p610
g2
sS'AS3B'
p611
S'H'
p612
sS'MAGI'
p613
g2
sS'MAGN'
p614
g2
sS'FLAM'
p615
g2
sS'GA20'
p616
g2
sS'PC9'
p617
g2
sS'IL76'
p618
g2
sS'NDAC'
p619
g2
sS'H111'
p620
g2
sS'PC7'
p621
g2
sS'NDAT'
p622
g2
sS'L13S'
p623
g2
sS'F106'
p624
g2
sS'F104'
p625
g2
sS'F100'
p626
g2
sS'S58P'
p627
g5
sS'Z26'
p628
g2
sS'YAK9'
p629
g2
sS'S58T'
p630
g5
sS'Z22'
p631
g2
sS'ME62'
p632
g2
sS'RV10'
p633
g2
sS'YAK3'
p634
g2
sS'SWIF'
p635
g2
sS'LIBE'
p636
g2
sS'KL35'
p637
g2
sS'HURI'
p638
g2
sS'SR71'
p639
g2
sS'ST75'
p640
g2
sS'B430'
p641
g5
sS'TZRV'
p642
g2
sS'TIJU'
p643
g2
sS'S10S'
p644
g2
sS'S108'
p645
g2
sS'S107'
p646
S'S'
p647
sS'RA14'
p648
g2
sS'SUSO'
p649
g2
sS'AK1'
p650
g2
sS'T40'
p651
g2
sS'L37'
p652
g2
sS'SBD'
p653
g2
sS'ACPL'
p654
g2
sS'P28A'
p655
g2
sS'PUP'
p656
g2
sS'SNS9'
p657
g2
sS'L39'
p658
g2
sS'PA12'
p659
g2
sS'DAHU'
p660
g2
sS'PA11'
p661
g2
sS'PA16'
p662
g2
sS'PA17'
p663
g2
sS'PA14'
p664
g2
sS'PA15'
p665
g2
sS'PA18'
p666
g2
sS'G2GL'
p667
g2
sS'DSA1'
p668
g2
sS'S39'
p669
g81
sS'FE51'
p670
g2
sS'LA25'
p671
g81
sS'S37'
p672
g2
sS'CELR'
p673
g2
sS'MR35'
p674
g2
sS'EC20'
p675
g5
sS'TS11'
p676
g2
sS'GANT'
p677
g2
sS'VP2'
p678
g2
sS'DC91'
p679
g2
sS'DC92'
p680
g2
sS'DC93'
p681
g2
sS'DC94'
p682
g2
sS'DC95'
p683
g2
sS'QR01'
p684
g2
sS'TOBA'
p685
g2
sS'GR51'
p686
g2
sS'M212'
p687
g2
sS'PPRO'
p688
g2
sS'TRMA'
p689
g2
sS'CP90'
p690
g2
sS'SZ45'
p691
g2
sS'XV15'
p692
S'T'
p693
sS'EDGE'
p694
g2
sS'ERCO'
p695
g2
sS'ME09'
p696
g2
sS'SACE'
p697
g2
sS'A500'
p698
g2
sS'A504'
p699
g2
sS'MICO'
p700
g2
sS'FA24'
p701
g2
sS'MJ12'
p702
g2
sS'FA20'
p703
g2
sS'MJ10'
p704
g2
sS'RF10'
p705
g2
sS'ES13'
p706
g2
sS'TR26'
p707
g2
sS'E145'
p708
g2
sS'TR20'
p709
g2
sS'P337'
p710
g2
sS'C152'
p711
g2
sS'C150'
p712
g2
sS'C404'
p713
g2
sS'M360'
p714
g2
sS'H53'
p715
g5
sS'ACAM'
p716
g2
sS'R4'
p717
g5
sS'BASS'
p718
g2
sS'R2'
p719
g647
sS'WT9'
p720
g2
sS'PSW4'
p721
g5
sS'ATAC'
p722
g2
sS'P750'
p723
g2
sS'QAIL'
p724
g2
sS'KOLL'
p725
g2
sS'A343'
p726
g2
sS'A345'
p727
g2
sS'A346'
p728
g2
sS'E3CF'
p729
g2
sS'C08T'
p730
g2
sS'W11'
p731
g2
sS'LAKX'
p732
g2
sS'PZ3T'
p733
g2
sS'SPT1'
p734
g2
sS'LAKR'
p735
g2
sS'VF2'
p736
g2
sS'B13'
p737
g2
sS'AN38'
p738
g2
sS'AN30'
p739
g2
sS'AN32'
p740
g2
sS'SACR'
p741
g2
sS'T134'
p742
g2
sS'G44'
p743
g81
sS'G46'
p744
g2
sS'RF3'
p745
g2
sS'CL2P'
p746
g81
sS'TP40'
p747
g2
sS'RF6'
p748
g2
sS'RF5'
p749
g2
sS'RF4'
p750
g2
sS'RF9'
p751
g2
sS'TAIL'
p752
g2
sS'LYNX'
p753
g5
sS'T22M'
p754
g2
sS'MC90'
p755
g2
sS'BRB2'
p756
g5
sS'ST87'
p757
g2
sS'SNS7'
p758
g2
sS'F18'
p759
g2
sS'SNS2'
p760
g2
sS'M20P'
p761
g2
sS'F16'
p762
g2
sS'F14'
p763
g2
sS'F15'
p764
g2
sS'COL4'
p765
g198
sS'COL3'
p766
g2
sS'M20T'
p767
g2
sS'RALL'
p768
g2
sS'JAJ5'
p769
g2
sS'JAJ6'
p770
g2
sS'LWIN'
p771
g2
sS'DR40'
p772
g2
sS'ATL'
p773
g2
sS'JS20'
p774
g2
sS'MERK'
p775
g2
sS'ATP'
p776
g2
sS'TNAV'
p777
g2
sS'WW1'
p778
g2
sS'SASP'
p779
g2
sS'B06T'
p780
g5
sS'IL62'
p781
g2
sS'CL8'
p782
g2
sS'NPOR'
p783
g2
sS'FORT'
p784
g2
sS'WHIL'
p785
g2
sS'CH80'
p786
g2
sS'CARV'
p787
g2
sS'CLA'
p788
g2
sS'GF20'
p789
g2
sS'WHIT'
p790
g2
sS'WHIS'
p791
g2
sS'COBR'
p792
g2
sS'ST60'
p793
g2
sS'IS2'
p794
g5
sS'M10'
p795
g2
sS'A211'
p796
g2
sS'M15'
p797
g2
sS'AT3'
p798
g2
sS'M17'
p799
g2
sS'M18'
p800
g2
sS'CRIO'
p801
g81
sS'TTWO'
p802
g2
sS'MH02'
p803
g2
sS'RC70'
p804
g2
sS'CPUP'
p805
g2
sS'EUFI'
p806
g2
sS'MY13'
p807
g2
sS'MY12'
p808
g2
sS'T50'
p809
g2
sS'CMD1'
p810
g165
sS'S2P'
p811
g2
sS'EC25'
p812
g5
sS'PC21'
p813
g2
sS'S2T'
p814
g2
sS'Y141'
p815
g2
sS'CMDT'
p816
g165
sS'MH20'
p817
g5
sS'SUNV'
p818
g2
sS'RA17'
p819
g2
sS'S21'
p820
g2
sS'SUNB'
p821
g2
sS'CMDE'
p822
g165
sS'TB31'
p823
g2
sS'TB30'
p824
g2
sS'PA24'
p825
g2
sS'MR25'
p826
g2
sS'D6'
p827
g2
sS'D7'
p828
g2
sS'D4'
p829
g2
sS'SW2'
p830
g2
sS'SW4'
p831
g2
sS'D1'
p832
g2
sS'MI14'
p833
g5
sS'MI10'
p834
g5
sS'CORS'
p835
g2
sS'DC87'
p836
g2
sS'MIRA'
p837
g2
sS'DC85'
p838
g2
sS'E121'
p839
g2
sS'BARC'
p840
g2
sS'M200'
p841
g2
sS'M203'
p842
g2
sS'OMAG'
p843
g2
sS'P32T'
p844
g2
sS'P32R'
p845
g2
sS'CP80'
p846
g2
sS'VTC3'
p847
g2
sS'SZ9M'
p848
g2
sS'HA2'
p849
g165
sS'TA20'
p850
g2
sS'FA50'
p851
g2
sS'PZ06'
p852
g2
sS'HAR'
p853
g2
sS'PZ05'
p854
g2
sS'PZ02'
p855
g2
sS'PZ01'
p856
g2
sS'BAR6'
p857
g2
sS'APM2'
p858
g2
sS'TPIN'
p859
g2
sS'C160'
p860
g2
sS'TPIL'
p861
g2
sS'OZZI'
p862
g2
sS'SPEL'
p863
g2
sS'W3'
p864
g5
sS'MIR4'
p865
g2
sS'C365'
p866
g2
sS'H64'
p867
g5
sS'MIR2'
p868
g2
sS'H66'
p869
g5
sS'C185'
p870
g2
sS'C180'
p871
g2
sS'C182'
p872
g2
sS'C188'
p873
g2
sS'BELF'
p874
g2
sS'C21T'
p875
g2
sS'P210'
p876
g2
sS'AN28'
p877
g2
sS'H60'
p878
g5
sS'EZKC'
p879
g2
sS'E55P'
p880
g198
sS'STIL'
p881
g2
sS'FBA2'
p882
g2
sS'GY30'
p883
g2
sS'UBAT'
p884
g2
sS'C500'
p885
g2
sS'C501'
p886
g2
sS'ADVN'
p887
g81
sS'TMUS'
p888
g2
sS'ADVE'
p889
g2
sS'AN22'
p890
g2
sS'FOOF'
p891
g2
sS'BBAT'
p892
g2
sS'FOX'
p893
g2
sS'AN26'
p894
g2
sS'ECHO'
p895
g2
sS'FW90'
p896
g2
sS'AN24'
p897
g2
sS'GNAT'
p898
g2
sS'P100'
p899
g2
sS'RJ70'
p900
g2
sS'ULTS'
p901
g5
sS'C210'
p902
g2
sS'C212'
p903
g2
sS'WIND'
p904
g2
sS'WINE'
p905
g2
sS'LJ60'
p906
g2
sS'AD20'
p907
g2
sS'G73'
p908
g81
sS'CHIP'
p909
g2
sS'CHIN'
p910
g2
sS'KNTW'
p911
g2
sS'CHIF'
p912
g5
sS'F60'
p913
g2
sS'BE23'
p914
g2
sS'SB91'
p915
g2
sS'P38'
p916
g2
sS'P39'
p917
g2
sS'CASS'
p918
g2
sS'SA04'
p919
g2
sS'SA05'
p920
g2
sS'AS50'
p921
g5
sS'AS55'
p922
g5
sS'SA03'
p923
g2
sS'SU80'
p924
g2
sS'KA52'
p925
g5
sS'CH7'
p926
g5
sS'COMU'
p927
g5
sS'COMT'
p928
g2
sS'WFOC'
p929
g2
sS'BE20'
p930
g2
sS'IL18'
p931
g2
sS'EA50'
p932
g2
sS'IL14'
p933
g2
sS'ALIZ'
p934
g2
sS'VO10'
p935
g2
sS'CA65'
p936
g2
sS'CA61'
p937
g2
sS'ACR2'
p938
g2
sS'PW4'
p939
g2
sS'QEST'
p940
g2
sS'S05F'
p941
g2
sS'ZIU'
p942
g2
sS'SWOR'
p943
g2
sS'C17'
p944
g2
sS'C15'
p945
g2
sS'B47G'
p946
g5
sS'ST50'
p947
g2
sS'JUNR'
p948
g2
sS'AC52'
p949
g2
sS'I3'
p950
g2
sS'AC50'
p951
g2
sS'AC56'
p952
g2
sS'B47T'
p953
g5
sS'MEAD'
p954
g2
sS'TU95'
p955
g2
sS'JRC1'
p956
g2
sS'S61R'
p957
g5
sS'VIPR'
p958
g2
sS'PANT'
p959
g2
sS'MESS'
p960
g2
sS'E230'
p961
g2
sS'AC5M'
p962
g2
sS'C337'
p963
g2
sS'VIPJ'
p964
g2
sS'A10'
p965
g2
sS'SATA'
p966
g2
sS'EC35'
p967
g5
sS'ACRD'
p968
g2
sS'ACRO'
p969
g2
sS'ERAC'
p970
g2
sS'PARL'
p971
g2
sS'CHR4'
p972
g2
sS'S52'
p973
g5
sS'S51'
p974
g5
sS'TRBA'
p975
g2
sS'D11'
p976
g2
sS'A1'
p977
g2
sS'CHR1'
p978
g2
sS'BK17'
p979
g5
sS'CENT'
p980
g2
sS'TB05'
p981
g2
sS'C77R'
p982
g2
sS'SV4'
p983
g2
sS'A748'
p984
g2
sS'SAFF'
p985
g2
sS'CDC6'
p986
g2
sS'SAH1'
p987
g2
sS'GOTR'
p988
g2
sS'TA16'
p989
g81
sS'TA15'
p990
g2
sS'SP6E'
p991
g2
sS'EP9'
p992
g2
sS'HUNT'
p993
g2
sS'KL25'
p994
g2
sS'EN28'
p995
g5
sS'I66'
p996
g2
sS'HB3'
p997
g2
sS'CD2'
p998
g81
sS'TOXO'
p999
g2
sS'BD5T'
p1000
g2
sS'CR10'
p1001
g2
sS'HT2'
p1002
g2
sS'BD5J'
p1003
g2
sS'M308'
p1004
g2
sS'FINC'
p1005
g2
sS'PZ12'
p1006
g2
sS'BCA3'
p1007
g2
sS'C170'
p1008
g2
sS'C172'
p1009
g2
sS'C175'
p1010
g2
sS'C177'
p1011
g2
sS'TR1'
p1012
g81
sS'WW23'
p1013
g2
sS'WW24'
p1014
g2
sS'VSON'
p1015
g2
sS'C195'
p1016
g2
sS'ZULU'
p1017
g2
sS'TCOU'
p1018
g2
sS'DG50'
p1019
g2
sS'DIPR'
p1020
g81
sS'SF28'
p1021
g2
sS'DH2T'
p1022
g2
sS'SMB2'
p1023
g2
sS'BD12'
p1024
g2
sS'BCAT'
p1025
g2
sS'C510'
p1026
g198
sS'RANG'
p1027
g2
sS'CABN'
p1028
g2
sS'FB1B'
p1029
g2
sS'FB1A'
p1030
g2
sS'E45X'
p1031
g2
sS'CLB1'
p1032
g2
sS'P4Y'
p1033
g2
sS'SILH'
p1034
g2
sS'LEG2'
p1035
g2
sS'R100'
p1036
g2
sS'A122'
p1037
g2
sS'A124'
p1038
g2
sS'C207'
p1039
g2
sS'C206'
p1040
g2
sS'C205'
p1041
g2
sS'MAJR'
p1042
g2
sS'C208'
p1043
g2
sS'DV20'
p1044
g2
sS'MCR4'
p1045
g2
sS'ELF'
p1046
g2
sS'MCR1'
p1047
g2
sS'DRAG'
p1048
g5
sS'L101'
p1049
g2
sS'SM92'
p1050
g2
sS'N3'
p1051
g2
sS'F70'
p1052
g2
sS'N5'
p1053
g2
sS'J328'
p1054
g2
sS'CV99'
p1055
g2
sS'IPAN'
p1056
g2
sS'C411'
p1057
g2
sS'LEGD'
p1058
g2
sS'ROND'
p1059
g2
sS'CLBR'
p1060
g2
sS'AN12'
p1061
g2
sS'SA02'
p1062
g2
sS'P47'
p1063
g2
sS'MRF1'
p1064
g2
sS'P40'
p1065
g2
sS'SU95'
p1066
g198
sS'FH11'
p1067
g5
sS'CE15'
p1068
g647
sS'PNR3'
p1069
g2
sS'CAT1'
p1070
g2
sS'CAT2'
p1071
g2
sS'AEST'
p1072
g2
sS'D250'
p1073
g2
sS'D253'
p1074
g2
sS'AB95'
p1075
g2
sS'F156'
p1076
g2
sS'AC6L'
p1077
g2
sS'RV4T'
p1078
g2
sS'ACSR'
p1079
g2
sS'STFF'
p1080
g2
sS'KA50'
p1081
g5
sS'DIMO'
p1082
g2
sS'CH30'
p1083
g2
sS'CA7P'
p1084
g2
sS'CA7T'
p1085
g2
sS'AC68'
p1086
g2
sS'S601'
p1087
g2
sS'JN76'
p1088
g2
sS'SNOS'
p1089
g2
sS'ELA7'
p1090
g165
sS'PEMB'
p1091
g2
sS'KA62'
p1092
g5
sS'US1'
p1093
g81
sS'A910'
p1094
g2
sS'PCA2'
p1095
g165
sS'ZZZZ'
p1096
S'Z'
p1097
sS'HF20'
p1098
g2
sS'ACED'
p1099
g2
sS'BN2T'
p1100
g2
sS'TIGR'
p1101
g5
sS'S55T'
p1102
g5
sS'S55P'
p1103
g5
sS'MJ4'
p1104
g2
sS'MJ5'
p1105
g2
sS'MJ7'
p1106
g2
sS'KAK1'
p1107
g2
sS'MJ2'
p1108
g2
sS'MJ3'
p1109
g2
sS'MJ8'
p1110
g2
sS'MJ9'
p1111
g2
sS'S45'
p1112
g2
sS'LION'
p1113
g2
sS'SP55'
p1114
g2
sS'WCAT'
p1115
g2
sS'BILO'
p1116
g2
sS'L188'
p1117
g2
sS'JC01'
p1118
g2
sS'IS28'
p1119
g2
sS'JC02'
p1120
g2
sS'DHA3'
p1121
g2
sS'FALC'
p1122
g2
sS'SHAW'
p1123
g2
sS'LNC4'
p1124
g2
sS'DH3T'
p1125
g2
sS'SHAC'
p1126
g2
sS'MS76'
p1127
g2
sS'MS73'
p1128
g2
sS'SHAK'
p1129
g81
sS'HW4P'
p1130
g165
sS'ARON'
p1131
g2
sS'G180'
p1132
g2
sS'SQ2T'
p1133
g2
sS'BE18'
p1134
g2
sS'HU1'
p1135
g2
sS'HU2'
p1136
g2
sS'BABY'
p1137
g5
sS'A3ST'
p1138
g2
sS'BE17'
p1139
g2
sS'BE10'
p1140
g2
sS'BE12'
p1141
g81
sS'RF47'
p1142
g2
sS'BUCA'
p1143
g81
sS'TS8'
p1144
g2
sS'C340'
p1145
g2
sS'DSLK'
p1146
g2
sS'EX5T'
p1147
g2
sS'DO27'
p1148
g2
sS'S3'
p1149
g2
sS'S1'
p1150
g2
sS'DG40'
p1151
g2
sS'DO28'
p1152
g2
sS'S4'
p1153
g2
sS'C750'
p1154
g2
sS'GLST'
p1155
g2
sS'SCAM'
p1156
g2
sS'PT21'
p1157
g2
sS'GLSP'
p1158
g2
sS'VW10'
p1159
g2
sS'C526'
p1160
g2
sS'C525'
p1161
g2
sS'M404'
p1162
g2
sS'LNP4'
p1163
g2
sS'SPIR'
p1164
g2
sS'FC1'
p1165
g2
sS'R135'
p1166
g2
sS'G21M'
p1167
g81
sS'SPIT'
p1168
g2
sS'PT80'
p1169
g2
sS'G21T'
p1170
g81
sS'T211'
p1171
g2
sS'CYCL'
p1172
g2
sS'WG30'
p1173
g5
sS'E190'
p1174
g2
sS'CAR'
p1175
g2
sS'LJ45'
p1176
g2
sS'CAW'
p1177
g2
sS'LJ40'
p1178
g2
sS'CAT'
p1179
g81
sS'Z37T'
p1180
g2
sS'Z37P'
p1181
g2
sS'VAMP'
p1182
g2
sS'J8A'
p1183
g2
sS'S05R'
p1184
g2
sS'FLE2'
p1185
g2
sS'FLE7'
p1186
g2
sS'COAR'
p1187
g2
sS'T101'
p1188
g2
sS'PELI'
p1189
g2
sS'JAG2'
p1190
g5
sS'SA20'
p1191
g81
sS'P57'
p1192
g2
sS'P50'
p1193
g2
sS'P51'
p1194
g2
sS'DOCX'
p1195
g2
sS'GLAS'
p1196
g2
sS'RAIL'
p1197
g2
sS'SKAR'
p1198
g2
sS'AKRO'
p1199
g2
sS'GRIF'
p1200
g2
sS'FS51'
p1201
g2
sS'JAGR'
p1202
g2
sS'VF60'
p1203
g2
sS'IL38'
p1204
g2
sS'CA8'
p1205
g2
sS'BLKS'
p1206
g2
sS'DRTG'
p1207
g2
sS'CA6'
p1208
g2
sS'CA4'
p1209
g2
sS'B305'
p1210
g5
sS'TGRS'
p1211
g2
sS'AUS7'
p1212
g2
sS'AUS6'
p1213
g2
sS'AUS5'
p1214
g2
sS'AUS4'
p1215
g2
sS'AUS3'
p1216
g2
sS'D28D'
p1217
g2
sS'SF2'
p1218
g2
sS'AUS9'
p1219
g2
sS'B47J'
p1220
g5
sS'F2TH'
p1221
g2
sS'AC72'
p1222
g2
sS'D28T'
p1223
g2
sS'C56X'
p1224
g2
sS'ST30'
p1225
g2
sS'HA4T'
p1226
g198
sS'CE25'
p1227
g647
sS'MCOY'
p1228
g2
sS'MCOU'
p1229
g2
sS'MD11'
p1230
g2
sS'H21'
p1231
g5
sS'EZFL'
p1232
g2
sS'BR14'
p1233
g2
sS'KELD'
p1234
g2
sS'G850'
p1235
g2
sS'Y130'
p1236
g2
sS'KELA'
p1237
g2
sS'SU49'
p1238
g2
sS'MI8'
p1239
g5
sS'MI2'
p1240
g5
sS'MI4'
p1241
g5
sS'MI6'
p1242
g5
sS'VL55'
p1243
g2
sS'EM11'
p1244
g2
sS'EM10'
p1245
g2
sS'S76'
p1246
g5
sS'GY80'
p1247
g2
sS'CRJ7'
p1248
g2
sS'FA62'
p1249
g2
sS'CRJ1'
p1250
g2
sS'SH5'
p1251
g647
sS'CRJ2'
p1252
g2
sS'SPHA'
p1253
g165
sS'NA40'
p1254
g5
sS'CRJ9'
p1255
g2
sS'JT2'
p1256
g2
sS'MGAT'
p1257
g2
sS'LNCE'
p1258
g2
sS'E6'
p1259
g2
sS'E2'
p1260
g2
sS'LNC2'
p1261
g2
sS'ESQL'
p1262
g2
sS'CRJX'
p1263
g198
sS'BM6'
p1264
g2
sS'MG19'
p1265
g2
sS'KL07'
p1266
g2
sS'KLBR'
p1267
g2
sS'RPUP'
p1268
g165
sS'TBM'
p1269
g2
sS'EXPR'
p1270
g2
sS'TFUN'
p1271
g2
sS'XL2'
p1272
g2
sS'IR46'
p1273
g2
sS'P808'
p1274
g2
sS'K35E'
p1275
g2
sS'CPNA'
p1276
g2
sS'K35A'
p1277
g2
sS'E50P'
p1278
g198
sS'CNBR'
p1279
g2
sS'M326'
p1280
g2
sS'MU23'
p1281
g2
sS'KE3'
p1282
g2
sS'K35R'
p1283
g2
sS'EFOX'
p1284
g2
sS'A37'
p1285
g2
sS'S92'
p1286
g5
sS'B722'
p1287
g2
sS'PUSH'
p1288
g2
sS'C680'
p1289
g2
sS'X4'
p1290
g2
sS'R90R'
p1291
g2
sS'SBM3'
p1292
g2
sS'A388'
p1293
g2
sS'TSPT'
p1294
g2
sS'ISPT'
p1295
g2
sS'BFIT'
p1296
g2
sS'A140'
p1297
g2
sS'R90F'
p1298
g2
sS'HM38'
p1299
g2
sS'A148'
p1300
g198
sS'M5'
p1301
g2
sS'ETAR'
p1302
g2
sS'M4'
p1303
g2
sS'E500'
p1304
g2
sS'R44'
p1305
g5
sS'RW3'
p1306
g2
sS'G202'
p1307
g2
sS'TAMP'
p1308
g2
sS'G200'
p1309
g2
sS'CH60'
p1310
g2
sS'WB57'
p1311
g2
sS'DUCE'
p1312
g2
sS'GM01'
p1313
g2
sS'N320'
p1314
g2
sS'EC30'
p1315
g5
sS'SG37'
p1316
g2
sS'M9'
p1317
g2
sS'R90T'
p1318
g2
sS'KK60'
p1319
g2
sS'C82R'
p1320
g2
sS'TEAL'
p1321
g81
sS'KRIC'
p1322
g2
sS'RP1'
p1323
g5
sS'JH7'
p1324
g2
sS'F50'
p1325
g2
sS'C22J'
p1326
g2
sS'H53S'
p1327
g5
sS'LJ55'
p1328
g2
sS'BEAR'
p1329
g2
sS'SARA'
p1330
g2
sS'P61'
p1331
g2
sS'P60'
p1332
g2
sS'SA37'
p1333
g2
sS'CAD4'
p1334
g2
sS'SA30'
p1335
g2
sS'FRON'
p1336
g2
sS'MOL1'
p1337
g2
sS'AS80'
p1338
g2
sS'SA38'
p1339
g2
sS'FIBO'
p1340
g2
sS'EZHV'
p1341
g2
sS'DIJ3'
p1342
g2
sS'SD26'
p1343
g2
sS'AE45'
p1344
g2
sS'PO60'
p1345
g2
sS'FT30'
p1346
g2
sS'ZA6'
p1347
g5
sS'IL28'
p1348
g2
sS'MC10'
p1349
g2
sS'VALI'
p1350
g2
sS'SE5A'
p1351
g2
sS'EXEC'
p1352
g5
sS'EXEJ'
p1353
g5
sS'IFUR'
p1354
g2
sS'SE5R'
p1355
g2
sS'HAWK'
p1356
g2
sS'AC80'
p1357
g2
sS'SCW1'
p1358
g2
sS'B190'
p1359
g2
sS'KFIR'
p1360
g2
sS'KFIS'
p1361
g81
sS'CDW1'
p1362
g2
sS'YK11'
p1363
g2
sS'J4'
p1364
g2
sS'J5'
p1365
g2
sS'J1'
p1366
g2
sS'J2'
p1367
g2
sS'J3'
p1368
g2
sS'B209'
p1369
g2
sS'CH2T'
p1370
g2
sS'CTAH'
p1371
g2
sS'AN2'
p1372
g2
sS'AN3'
p1373
g2
sS'K51'
p1374
g2
sS'T18'
p1375
g2
sS'B427'
p1376
g5
sS'SIR2'
p1377
g2
sS'YARR'
p1378
g2
sS'JS32'
p1379
g2
sS'M18T'
p1380
g2
sS'PA44'
p1381
g2
sS'PA46'
p1382
g2
sS'TC2'
p1383
g2
sS'B734'
p1384
g2
sS'B735'
p1385
g2
sS'B736'
p1386
g2
sS'B737'
p1387
g2
sS'B731'
p1388
g2
sS'B732'
p1389
g2
sS'B733'
p1390
g2
sS'PC6P'
p1391
g2
sS'S64'
p1392
g5
sS'B738'
p1393
g2
sS'VMT'
p1394
g2
sS'JCRU'
p1395
g2
sS'S61'
p1396
g5
sS'SQES'
p1397
g2
sS'CH25'
p1398
g2
sS'CH20'
p1399
g2
sS'BU33'
p1400
g2
sS'BU31'
p1401
g2
sS'S400'
p1402
g647
sS'DSK'
p1403
g2
sS'VNOM'
p1404
g2
sS'SOK2'
p1405
g2
sS'DHC1'
p1406
g2
sS'DHC3'
p1407
g2
sS'DHC2'
p1408
g2
sS'DHC5'
p1409
g2
sS'DHC4'
p1410
g2
sS'DHC7'
p1411
g2
sS'DHC6'
p1412
g2
sS'KR2'
p1413
g2
sS'KR1'
p1414
g2
sS'MS18'
p1415
g2
sS'M339'
p1416
g2
sS'BE32'
p1417
g2
sS'BE33'
p1418
g2
sS'BE30'
p1419
g2
sS'MU30'
p1420
g2
sS'BE36'
p1421
g2
sS'GAZL'
p1422
g5
sS'JB15'
p1423
g2
sS'BE35'
p1424
g2
sS'A20'
p1425
g2
sS'A21'
p1426
g2
sS'A22'
p1427
g2
sS'PREN'
p1428
g2
sS'A25'
p1429
g81
sS'A27'
p1430
g2
sS'RMOU'
p1431
g5
sS'GAUN'
p1432
g2
sS'SP91'
p1433
g2
sS'HROC'
p1434
g2
sS'TRAP'
p1435
g2
sS'SP95'
p1436
g2
sS'I23'
p1437
g2
sS'L380'
p1438
g2
sS'C25A'
p1439
g2
sS'C25B'
p1440
g2
sS'C25C'
p1441
g198
sS'L13M'
p1442
g2
sS'SF36'
p1443
g2
sS'SF34'
p1444
g2
sS'SF35'
p1445
g2
sS'SF32'
p1446
g2
sS'SF31'
p1447
g2
sS'TERM'
p1448
g2
sS'M2HK'
p1449
g2
sS'BE76'
p1450
g2
sS'MJ80'
p1451
g2
sS'SPOR'
p1452
g2
sS'VECT'
p1453
g2
sS'GOOS'
p1454
g81
sS'MC45'
p1455
g2
sS'P149'
p1456
g2
sS'P148'
p1457
g2
sS'SBLS'
p1458
g2
sS'PINO'
p1459
g2
sS'RC3'
p1460
g81
sS'DG60'
p1461
g2
sS'G300'
p1462
g2
sS'MIDR'
p1463
g2
sS'F16X'
p1464
g2
sS'N3N'
p1465
g2
sS'HMNY'
p1466
g2
sS'DART'
p1467
g2
sS'DON'
p1468
g2
sS'O3'
p1469
g2
sS'O1'
p1470
g2
sS'SB7'
p1471
g2
sS'P70'
p1472
g2
sS'FLIZ'
p1473
g2
sS'WM2'
p1474
g2
sS'DUB2'
p1475
g2
sS'HIND'
p1476
g2
sS'SL39'
p1477
g2
sS'JAST'
p1478
g2
sS'BKUT'
p1479
g2
sS'E3TF'
p1480
g2
sS'PREX'
p1481
g2
sS'NIMB'
p1482
g2
sS'KSTK'
p1483
g2
sS'COUR'
p1484
g2
sS'ST10'
p1485
g2
sS'CHCS'
p1486
g2
sS'AC95'
p1487
g2
sS'AC90'
p1488
g2
sS'CVLT'
p1489
g2
sS'CVLP'
p1490
g2
sS'YK28'
p1491
g2
sS'NSTR'
p1492
g2
sS'CE22'
p1493
g647
sS'CMAS'
p1494
g2
sS'B212'
p1495
g5
sS'CKUO'
p1496
g2
sS'POLI'
p1497
g2
sS'SERA'
p1498
g2
sS'B1'
p1499
g2
sS'MF10'
p1500
g2
sS'MF17'
p1501
g2
sS'B18T'
p1502
g2
sS'S360'
p1503
g5
sS'NDIC'
p1504
g2
sS'T28'
p1505
g2
sS'B461'
p1506
g2
sS'AM3'
p1507
g2
sS'HUML'
p1508
g2
sS'L90'
p1509
g2
sS'ANGL'
p1510
g2
sS'Y112'
p1511
g2
sS'SCTR'
p1512
g2
sS'RFAL'
p1513
g2
sS'TBEE'
p1514
g81
sS'ME08'
p1515
g2
sS'JD2'
p1516
g2
sS'B463'
p1517
g2
sS'BU20'
p1518
g2
sS'B721'
p1519
g2
sS'B720'
p1520
g2
sS'CH10'
p1521
g2
sS'CH15'
p1522
g2
sS'CH18'
p1523
g2
sS'PHIL'
p1524
g5
sS'A119'
p1525
g5
sS'GAVI'
p1526
g2
sS'SKIF'
p1527
g81
sS'J10'
p1528
g2
sS'PRTS'
p1529
g2
sS'BD10'
p1530
g2
sS'S210'
p1531
g2
sS'S211'
p1532
g2
sS'GSIS'
p1533
g2
sS'DH87'
p1534
g2
sS'AJET'
p1535
g2
sS'P63'
p1536
g2
sS'TRF1'
p1537
g2
sS'AIRD'
p1538
g2
sS'CP30'
p1539
g2
sS'CP32'
p1540
g2
sS'B60'
p1541
g2
sS'BOOM'
p1542
g2
sS'P68'
p1543
g2
sS'MS25'
p1544
g2
sS'MS23'
p1545
g2
sS'BE24'
p1546
g2
sS'GOLF'
p1547
g2
sS'RTA4'
p1548
g2
sS'HRZN'
p1549
g2
sS'C10T'
p1550
g2
sS'FDCT'
p1551
g2
sS'C02T'
p1552
g2
sS'LGEZ'
p1553
g2
sS'TFOC'
p1554
g2
sS'C336'
p1555
g2
sS'C335'
p1556
g2
sS'GL5T'
p1557
g2
sS'HN70'
p1558
g2
sS'A19'
p1559
g2
sS'A700'
p1560
g2
sS'A3'
p1561
g2
sS'A4'
p1562
g2
sS'A7'
p1563
g2
sS'A6'
p1564
g2
sS'A9'
p1565
g2
sS'DELF'
p1566
g2
sS'T6'
p1567
g2
sS'T7'
p1568
g2
sS'T4'
p1569
g2
sS'T5'
p1570
g2
sS'T2'
p1571
g2
sS'BIPL'
p1572
g2
sS'T1'
p1573
g2
sS'A129'
p1574
g5
sS'AVLN'
p1575
g81
sS'BD17'
p1576
g2
sS'SF23'
p1577
g2
sS'SF25'
p1578
g2
sS'SF24'
p1579
g2
sS'SF27'
p1580
g2
sS'G222'
p1581
g2
sS'BER2'
p1582
g81
sS'C07T'
p1583
g2
sS'R22'
p1584
g5
sS'FW44'
p1585
g2
sS'G21'
p1586
g81
sS'YC12'
p1587
g2
sS'FALM'
p1588
g2
sS'LA4'
p1589
g81
sS'DH88'
p1590
g2
sS'DH89'
p1591
g2
sS'MONA'
p1592
g2
sS'DH80'
p1593
g2
sS'DH82'
p1594
g2
sS'DH83'
p1595
g2
sS'DH85'
p1596
g2
sS'MONI'
p1597
g2
sS'MOGO'
p1598
g2
sS'AG02'
p1599
g2
sS'FU24'
p1600
g2
sS'TAYD'
p1601
g2
sS'TAYB'
p1602
g2
sS'TAYA'
p1603
g2
sS'GLF3'
p1604
g2
sS'GLF2'
p1605
g2
sS'EVAN'
p1606
g2
sS'GLF5'
p1607
g2
sS'GLF4'
p1608
g2
sS'DH8A'
p1609
g2
sS'DH8B'
p1610
g2
sS'DH8C'
p1611
g2
sS'DH8D'
p1612
g2
sS'SEST'
p1613
g81
sS'SA50'
p1614
g2
sS'RS18'
p1615
g2
sS'P82'
p1616
g2
sS'P80'
p1617
g2
sS'RS12'
p1618
g2
sS'F27'
p1619
g2
sS'EZFT'
p1620
g2
sS'FOXT'
p1621
g2
sS'BR54'
p1622
g165
sS'VF14'
p1623
g2
sS'SEAW'
p1624
g81
sS'SEAT'
p1625
g81
sS'CB1'
p1626
g2
sS'SGUP'
p1627
g2
sS'WHAT'
p1628
g2
sS'G64T'
p1629
g2
sS'SCUB'
p1630
g2
sS'C46'
p1631
g2
sS'VANT'
p1632
g2
sS'MARS'
p1633
g647
sS'UL10'
p1634
g2
sS'HAW3'
p1635
g165
sS'U21'
p1636
g2
sS'U22'
p1637
g2
sS'SK70'
p1638
g2
sS'E2CB'
p1639
g2
sS'ELST'
p1640
g2
sS'PUMA'
p1641
g5
sS'YK38'
p1642
g2
sS'JARO'
p1643
g2
sS'B222'
p1644
g5
sS'B407'
p1645
g5
sS'RLU1'
p1646
g2
sS'W62T'
p1647
g2
sS'T38'
p1648
g2
sS'T37'
p1649
g2
sS'T35'
p1650
g2
sS'T33'
p1651
g2
sS'YS11'
p1652
g2
sS'CRA1'
p1653
g2
sS'JE2'
p1654
g165
sS'L610'
p1655
g2
sS'AP28'
p1656
g2
sS'F406'
p1657
g2
sS'S51D'
p1658
g2
sS'L40'
p1659
g2
sS'EURT'
p1660
g2
sS'COZY'
p1661
g2
sS'CEGL'
p1662
g2
sS'BROU'
p1663
g2
sS'RUBI'
p1664
g2
sS'B712'
p1665
g2
sS'T30'
p1666
g2
sS'JS1'
p1667
g2
sS'JS3'
p1668
g2
sS'EH10'
p1669
g5
sS'MD3'
p1670
g2
sS'F1'
p1671
g2
sS'F2'
p1672
g2
sS'F4'
p1673
g2
sS'VIMY'
p1674
g2
sS'ALH'
p1675
g5
sS'F8'
p1676
g2
sS'I15B'
p1677
g2
sS'PAGO'
p1678
g2
sS'TLEG'
p1679
g2
sS'T334'
p1680
g2
sS'S202'
p1681
g81
sS'S200'
p1682
g2
sS'TOR'
p1683
g2
sS'S208'
p1684
g2
sS'C30J'
p1685
g2
sS'MITE'
p1686
g2
sS'CP23'
p1687
g2
sS'CP22'
p1688
g2
sS'CP21'
p1689
g2
sS'CP20'
p1690
g2
sS'KT1'
p1691
g2
sS'OMGA'
p1692
g2
sS'NMCU'
p1693
g2
sS'MS31'
p1694
g2
sS'MS30'
p1695
g2
sS'RJ03'
p1696
g2
sS'BE50'
p1697
g2
sS'BE55'
p1698
g2
sS'BE56'
p1699
g2
sS'BE58'
p1700
g2
sS'A002'
p1701
g165
sS'PAUL'
p1702
g2
sS'S38'
p1703
g81
sS'WACO'
p1704
g2
sS'WACC'
p1705
g2
sS'C650'
p1706
g2
sS'C303'
p1707
g2
sS'PRCE'
p1708
g2
sS'WACF'
p1709
g2
sS'CRAC'
p1710
g2
sS'DA40'
p1711
g2
sS'DA42'
p1712
g2
sS'A139'
p1713
g5
sS'KMAX'
p1714
g5
sS'C27J'
p1715
g2
sS'DC4'
p1716
g2
sS'FNKB'
p1717
g2
sS'IMPU'
p1718
g2
sS'SPST'
p1719
g2
sS'DC2'
p1720
g2
sS'STST'
p1721
g2
sS'LP1'
p1722
g2
sS'L29A'
p1723
g2
sS'L29B'
p1724
g2
sS'G140'
p1725
g2
sS'ST1'
p1726
g2
sS'SHEK'
p1727
g2
sS'H500'
p1728
g5
sS'A225'
p1729
g2
sS'SHER'
p1730
g2
sS'YK12'
p1731
g2
sS'MMAX'
p1732
g165
sS'C270'
p1733
g2
sS'T250'
p1734
g2
sS'DH90'
p1735
g2
sS'R109'
p1736
g2
sS'DH94'
p1737
g2
sS'AMX'
p1738
g2
sS'MMAC'
p1739
g2
sS'GURI'
p1740
g2
sS'PILL'
p1741
g2
sS'DG80'
p1742
g2
sS'B36T'
p1743
g2
sS'STAR'
p1744
g2
sS'FOUG'
p1745
g2
sS'SM60'
p1746
g2
sS'F86'
p1747
g2
sS'STAL'
p1748
g2
sS'YK18'
p1749
g2
sS'IA63'
p1750
g2
sS'IA46'
p1751
g2
sS'VK3P'
p1752
g2
sS'CHSY'
p1753
g165
sS'D328'
p1754
g2
sS'PULS'
p1755
g2
sS'J4B2'
p1756
g165
sS'HT16'
p1757
g2
sS'SYMP'
p1758
g2
sS'MRAI'
p1759
g2
sS'JACE'
p1760
g2
sS'SBR1'
p1761
g2
sS'SBR2'
p1762
g2
sS'ARWF'
p1763
g2
sS'F8L'
p1764
g2
sS'GLEX'
p1765
g2
sS'HDJT'
p1766
g2
sS'MM16'
p1767
g165
sS'HORN'
p1768
g2
sS'OM1'
p1769
g2
sS'HORZ'
p1770
g2
sS'U16'
p1771
g81
sS'MD52'
p1772
g5
sS'H269'
p1773
g5
sS'YK40'
p1774
g2
sS'LYSA'
p1775
g2
sS'YK42'
p1776
g2
sS'SWAK'
p1777
g2
sS'SWAT'
p1778
g2
sS'B14C'
p1779
g2
sS'B14B'
p1780
g2
sS'B14A'
p1781
g2
sS'B230'
p1782
g5
sS'JPM1'
p1783
g2
sS'GFLY'
p1784
g2
sS'B412'
p1785
g5
sS'HERN'
p1786
g2
sS'MG44'
p1787
g2
sS'JU52'
p1788
g2
sS'PC12'
p1789
g2
sS'MU2'
p1790
g2
sS'KEHA'
p1791
g2
sS'D5TU'
p1792
g2
sS'T204'
p1793
g2
sS'SCRO'
p1794
g2
sS'KIWI'
p1795
g2
sS'RJ1H'
p1796
g2
sS'TM5'
p1797
g2
sS'WACE'
p1798
g2
sS'RYST'
p1799
g2
sS'WACD'
p1800
g2
sS'WACG'
p1801
g2
sS'OPCA'
p1802
g2
sS'B701'
p1803
g2
sS'B703'
p1804
g2
sS'VC10'
p1805
g2
sS'C97'
p1806
g2
sS'CH70'
p1807
g2
sS'AN8'
p1808
g2
sS'TIPB'
p1809
g2
sS'SL1'
p1810
g2
sS'SAND'
p1811
g647
sS'Z43'
p1812
g2
sS'FJ10'
p1813
g2
sS'D150'
p1814
g2
sS'ACJR'
p1815
g81
sS'HAHU'
p1816
g2
sS'CP13'
p1817
g2
sS'CP10'
p1818
g2
sS'TF21'
p1819
g2
sS'TF22'
p1820
g2
sS'PAT4'
p1821
g2
sS'AT8T'
p1822
g2
sS'FL3'
p1823
g2
sS'BL19'
p1824
g2
sS'PZ04'
p1825
g2
sS'BL11'
p1826
g2
sS'BL17'
p1827
g2
sS'VELO'
p1828
g2
sS'BE40'
p1829
g2
sS'MJ90'
p1830
g2
sS'EAGL'
p1831
g2
sS'K226'
p1832
g5
sS'X29'
p1833
g2
sS'BSTP'
p1834
g5
sS'EAGT'
p1835
g2
sS'MLER'
p1836
g2
sS'EAGX'
p1837
g2
sS'DC10'
p1838
g2
sS'C310'
p1839
g2
sS'P28T'
p1840
g2
sS'P28R'
p1841
g2
sS'N120'
p1842
g2
sS'VWIT'
p1843
g2
sS'PICO'
p1844
g2
sS'RAZM'
p1845
g2
sS'GP4'
p1846
g2
sS'P28B'
p1847
g2
sS'OSCR'
p1848
g2
sS'GP3'
p1849
g81
sS'SREY'
p1850
g81
sS'R300'
p1851
g2
sS'A109'
p1852
g5
sS'AS65'
p1853
g5
sS'SONX'
p1854
g2
sS'PKAN'
p1855
g2
sS'NORS'
p1856
g2
sS'NIM'
p1857
g2
sS'NORA'
p1858
g2
sS'ATIS'
p1859
g2
sS'G159'
p1860
g2
sS'MUS2'
p1861
g2
sS'G150'
p1862
g2
sS'FW21'
p1863
g2
sS'R2TH'
p1864
g2
sS'STR2'
p1865
g2
sS'TAA1'
p1866
g2
sS'SPR2'
p1867
g2
sS'JABI'
p1868
g2
sS'A210'
p1869
g2
sS'G4SG'
p1870
g2
sS'FEST'
p1871
g2
sS'PGEE'
p1872
g2
sS'MJ77'
p1873
g2
sS'WA80'
p1874
g2
sS'ARVA'
p1875
g2
sS'E120'
p1876
g2
sS'FANL'
p1877
g2
sS'PLUS'
p1878
g2
sS'AEA1'
p1879
g2
sS'P06T'
p1880
g198
sS'FANT'
p1881
g2
sS'DRIF'
p1882
g2
sS'PGK1'
p1883
g2
sS'P2'
p1884
g2
sS'P3'
p1885
g2
sS'C402'
p1886
g2
sS'ARV1'
p1887
g2
sS'TAGO'
p1888
g2
sS'UNIV'
p1889
g2
sS'MM14'
p1890
g165
sS'TJET'
p1891
g2
sS'SA70'
p1892
g2
sS'SPRT'
p1893
g2
sS'SA75'
p1894
g2
sS'JAB4'
p1895
g2
sS'STRI'
p1896
g2
sS'LCB'
p1897
g2
sS'SA11'
p1898
g2
sS'STRM'
p1899
g2
sS'LCA'
p1900
g2
sS'P66P'
p1901
g2
sS'STRA'
p1902
g2
sS'SA10'
p1903
g2
sS'P66T'
p1904
g2
sS'PL4'
p1905
g2
sS'PL2'
p1906
g2
sS'PL1'
p1907
g2
sS'MOR2'
p1908
g2
sS'UT66'
p1909
g2
sS'D18'
p1910
g2
sS'PEGA'
p1911
g2
sS'PL9'
p1912
g2
sS'PEGZ'
p1913
g2
sS'RAF2'
p1914
g165
sS'V22'
p1915
g693
sS'S62'
p1916
g5
sS'CHGO'
p1917
g2
sS'B739'
p1918
g2
sS'AR11'
p1919
g2
sS'AR15'
p1920
g2
sS'REV6'
p1921
g165
sS'F9F'
p1922
g2
sS'FREL'
p1923
g5
sS'FREE'
p1924
g2
sS'L181'
p1925
g2
sS'MVN1'
p1926
g2
sS'YK58'
p1927
g2
sS'VISC'
p1928
g2
sS'YK53'
p1929
g2
sS'YK52'
p1930
g2
sS'YK50'
p1931
g2
sS'TU22'
p1932
g2
sS'YK55'
p1933
g2
sS'YK54'
p1934
g2
sS'SB05'
p1935
g2
sS'SIDE'
p1936
g2
sS'B170'
p1937
g2
sS'PONY'
p1938
g81
sS'M74'
p1939
g5
sS'WASP'
p1940
g5
sS'G800'
p1941
g2
sS'F26T'
p1942
g2
sS'VTUR'
p1943
g2
sS'DJIN'
p1944
g5
sS'TRWN'
p1945
g2
sS'AB11'
p1946
g2
sS'B77L'
p1947
g198
sS'AB15'
p1948
g2
sS'MT2'
p1949
g2
sS'AB18'
p1950
g2
sS'SU17'
p1951
g2
sS'SU15'
p1952
g2
sS'B77W'
p1953
g198
sS'MG17'
p1954
g2
sS'EC45'
p1955
g5
sS'MG15'
p1956
g2
sS'L60'
p1957
g2
sS'GA8'
p1958
g2
sS'GA7'
p1959
g2
sS'KR34'
p1960
g2
sS'PP3'
p1961
g2
sS'PP2'
p1962
g2
sS'B772'
p1963
g2
sS'B773'
p1964
g2
sS'EUPA'
p1965
g2
sS'BL8'
p1966
g2
sS'C82'
p1967
g2
sS'WS22'
p1968
g2
sS'M7T'
p1969
g2
sS'AUJ4'
p1970
g2
sS'CH62'
p1971
g2
sS'BX2'
p1972
g2
sS'AUJ2'
p1973
g2
sS'CH64'
p1974
g2
sS'F260'
p1975
g2
sS'FJR3'
p1976
g2
sS'D140'
p1977
g2
sS'AT5T'
p1978
g2
sS'AT5P'
p1979
g2
sS'DEAG'
p1980
g165
sS'S223'
p1981
g2
sS'K50'
p1982
g2
sS'TOOT'
p1983
g2
sS'B609'
p1984
g693
sS'HI27'
p1985
g2
sS'AVID'
p1986
g2
sS'AVIN'
p1987
g2
sS'TSTR'
p1988
g165
sS'L410'
p1989
g2
sS'I22'
p1990
g2
sS'HT34'
p1991
g2
sS'X32'
p1992
g2
sS'X31'
p1993
g2
sS'X35'
p1994
g2
sS'NAVI'
p1995
g2
sS'BE77'
p1996
g2
sS'PETR'
p1997
g81
sS'KH4'
p1998
g5
sS'BE70'
p1999
g2
sS'FFLY'
p2000
g2
sS'K250'
p2001
g2
sS'C101'
p2002
g2
sS'BOLT'
p2003
g2
sS'RD20'
p2004
g2
sS'WOPU'
p2005
g2
sS'WF4U'
p2006
g2
sS'SCOM'
p2007
g2
sS'SCOU'
p2008
g5
sS'PTMS'
p2009
g2
sS'SCOR'
p2010
g5
sS'B2'
p2011
g2
sS'ROSE'
p2012
g2
sS'BE9T'
p2013
g2
sS'WFUR'
p2014
g2
sS'JCOM'
p2015
g2
sS'PZ6T'
p2016
g2
sS'DWD2'
p2017
g2
sS'MYS4'
p2018
g2
sS'U2'
p2019
g2
sS'MJ1H'
p2020
g2
sS'I153'
p2021
g2
sS'BE9L'
p2022
g2
sS'BA11'
p2023
g2
sS'SPC2'
p2024
g2
sS'BER4'
p2025
g81
sS'R11'
p2026
g2
sS'BD5'
p2027
g2
sS'BD4'
p2028
g2
sS'SSTM'
p2029
g81
sS'EX3R'
p2030
g2
sS'ATLA'
p2031
g2
sS'G160'
p2032
g2
sS'G164'
p2033
g2
sS'R200'
p2034
g2
sS'SX30'
p2035
g2
sS'P180'
p2036
g2
sS'FW19'
p2037
g2
sS'HRYA'
p2038
g2
sS'AP24'
p2039
g81
sS'AP26'
p2040
g2
sS'AP20'
p2041
g2
sS'A205'
p2042
g165
sS'VIX'
p2043
g2
sS'BE95'
p2044
g2
sS'SH4'
p2045
g5
sS'M55'
p2046
g2
sS'C295'
p2047
g2
sS'E135'
p2048
g2
sS'BE99'
p2049
g2
sS'FBIR'
p2050
g2
sS'ELTR'
p2051
g2
sS'FURY'
p2052
g2
sS'COY2'
p2053
g2
sS'TUCA'
p2054
g2
sS'STOR'
p2055
g2
sS'CNUK'
p2056
g2
sS'GBSP'
p2057
g2
sS'BLEN'
p2058
g2
sS'ELTO'
p2059
g5
sS'LUL8'
p2060
g2
sS'E737'
p2061
g2
sS'SKYO'
p2062
g2
sS'P270'
p2063
g2
sS'LUL5'
p2064
g2
sS'LUL7'
p2065
g2
sS'LUL6'
p2066
g2
sS'DINO'
p2067
g2
sS'SKYR'
p2068
g2
sS'GRAF'
p2069
g2
sS'IL96'
p2070
g2
sS'DIES'
p2071
g2
sS'D25'
p2072
g2
sS'ASO4'
p2073
g2
sS'DR30'
p2074
g2
sS'CG3'
p2075
g2
sS'TWSP'
p2076
g2
sS'NOMA'
p2077
g2
sS'MOCU'
p2078
g2
sS'SM01'
p2079
g2
sS'S278'
p2080
g5
sS'MAMB'
p2081
g2
sS'MAME'
p2082
g2
sS'SU27'
p2083
g2
sS'MRTN'
p2084
g2
sS'SRAC'
p2085
g2
sS'SRAI'
p2086
g2
sS'SRAS'
p2087
g2
sS'SU24'
p2088
g2
sS'DW1'
p2089
g2
sS'DAL4'
p2090
g2
sS'TU16'
p2091
g2
sS'SB32'
p2092
g2
sS'HT32'
p2093
g2
sS'CUB2'
p2094
g2
sS'SB37'
p2095
g2
sS'SB35'
p2096
g2
sS'SB39'
p2097
g2
sS'RW26'
p2098
g2
sS'MD90'
p2099
g2
sS'RW22'
p2100
g2
sS'RW20'
p2101
g2
sS'UM18'
p2102
g165
sS'B26M'
p2103
g2
sS'WDEX'
p2104
g2
sS'SU26'
p2105
g2
sS'DA5'
p2106
g2
sS'SH36'
p2107
g2
sS'SU25'
p2108
g2
sS'MOSQ'
p2109
g2
sS'MOSP'
p2110
g2
sS'DA2'
p2111
g2
sS'SH33'
p2112
g2
sS'CN12'
p2113
g2
sS'SU29'
p2114
g2
sS'LR2T'
p2115
g5
sS'VIXN'
p2116
g2
sS'D228'
p2117
g2
sS'CL2T'
p2118
g81
sS'QIC2'
p2119
g2
sS'PTRL'
p2120
g2
sS'DAL1'
p2121
g2
sS'UL20'
p2122
g2
s.