(dp0
S''
p1
S'1P'
p2
sS'HEC'
p3
g1
sS'HEN'
p4
g1
sS'SPX'
p5
g1
sS'SPY'
p6
g1
sS'SPZ'
p7
g1
sS'SPP'
p8
g1
sS'SPQ'
p9
g1
sS'SPR'
p10
g1
sS'SPS'
p11
g1
sS'SPT'
p12
g1
sS'SPU'
p13
g1
sS'SPV'
p14
g1
sS'SPW'
p15
g1
sS'SPH'
p16
g1
sS'SPI'
p17
g1
sS'SPJ'
p18
S'M3'
p19
sS'SPK'
p20
g1
sS'SPL'
p21
g1
sS'SPM'
p22
S'PJ'
p23
sS'SPN'
p24
g1
sS'SPO'
p25
g1
sS'SPA'
p26
g1
sS'SPB'
p27
g1
sS'SPC'
p28
g1
sS'SPD'
p29
g1
sS'SPE'
p30
g1
sS'SPF'
p31
g1
sS'SPG'
p32
g1
sS'XPN'
p33
g1
sS'XPL'
p34
g1
sS'XPA'
p35
g1
sS'XPG'
p36
g1
sS'XPE'
p37
g1
sS'IXX'
p38
g1
sS'XPX'
p39
g1
sS'IXR'
p40
g1
sS'XPR'
p41
g1
sS'JNR'
p42
g1
sS'JNV'
p43
g1
sS'JNY'
p44
g1
sS'JNH'
p45
g1
sS'BEK'
p46
g1
sS'BEH'
p47
g1
sS'BEL'
p48
S'SN'
p49
sS'ENA'
p50
g1
sS'BEC'
p51
g1
sS'BEA'
p52
g1
sS'BEF'
p53
g1
sS'BED'
p54
g1
sS'BEE'
p55
S'BE'
p56
sS'BEZ'
p57
g1
sS'BER'
p58
S'AB'
p59
sS'BES'
p60
S'W4'
p61
sS'BET'
p62
g1
sS'GRV'
p63
g1
sS'GRT'
p64
g1
sS'ENK'
p65
S'G8'
p66
sS'GRR'
p67
g1
sS'GRS'
p68
g1
sS'GRP'
p69
g1
sS'GRZ'
p70
g1
sS'GRX'
p71
g1
sS'GRY'
p72
g1
sS'GRG'
p73
S'DA'
p74
sS'GRD'
p75
g1
sS'GRE'
p76
g1
sS'GRA'
p77
g1
sS'GRN'
p78
S'E2'
p79
sS'GRO'
p80
S'LL'
p81
sS'GRL'
p82
S'GL'
p83
sS'GRI'
p84
g1
sS'NOL'
p85
g1
sS'NON'
p86
g1
sS'NOH'
p87
g1
sS'HLX'
p88
S'X3'
p89
sS'HLW'
p90
g1
sS'NOF'
p91
g1
sS'HLT'
p92
g1
sS'HLS'
p93
g1
sS'HLR'
p94
g1
sS'NOC'
p95
g1
sS'HLO'
p96
g1
sS'HLN'
p97
S'HD'
p98
sS'HLM'
p99
g1
sS'HLK'
p100
g1
sS'NOY'
p101
g1
sS'HLI'
p102
g1
sS'HLH'
p103
g1
sS'HLG'
p104
g1
sS'HLF'
p105
S'HF'
p106
sS'NOV'
p107
S'M4'
p108
sS'HLD'
p109
g1
sS'HLC'
p110
g1
sS'HLB'
p111
g1
sS'HLA'
p112
g1
sS'NOS'
p113
S'NO'
p114
sS'FJI'
p115
S'FJ'
p116
sS'FJC'
p117
g1
sS'RFD'
p118
g1
sS'FJE'
p119
g1
sS'EJD'
p120
g1
sS'FJS'
p121
g1
sS'HYH'
p122
g1
sS'LMX'
p123
g1
sS'LMY'
p124
g1
sS'LMZ'
p125
g1
sS'EDA'
p126
g1
sS'RLK'
p127
g1
sS'LMP'
p128
g1
sS'LMR'
p129
g1
sS'LMS'
p130
g1
sS'RLA'
p131
S'A5'
p132
sS'EDO'
p133
g1
sS'EDL'
p134
g1
sS'EDR'
p135
g1
sS'LMJ'
p136
g1
sS'LMK'
p137
g1
sS'LML'
p138
g1
sS'EDW'
p139
S'WK'
p140
sS'LMN'
p141
g1
sS'RLZ'
p142
g1
sS'RLU'
p143
g1
sS'LMA'
p144
g1
sS'LMC'
p145
g1
sS'LME'
p146
g1
sS'RLS'
p147
g1
sS'RLR'
p148
g1
sS'DPL'
p149
g1
sS'PNY'
p150
g1
sS'PNX'
p151
g1
sS'CFL'
p152
g1
sS'CFM'
p153
g1
sS'CFJ'
p154
g1
sS'CFH'
p155
g1
sS'CFI'
p156
g1
sS'CFF'
p157
g1
sS'CFG'
p158
S'DE'
p159
sS'CFD'
p160
g1
sS'CFE'
p161
S'CJ'
p162
sS'PNU'
p163
g1
sS'PNT'
p164
g1
sS'PNW'
p165
S'PF'
p166
sS'CFA'
p167
g1
sS'PNH'
p168
g1
sS'PNM'
p169
g1
sS'PNL'
p170
g1
sS'CFV'
p171
g1
sS'CFT'
p172
g1
sS'CFU'
p173
g1
sS'CFR'
p174
g1
sS'CFS'
p175
S'EM'
p176
sS'PNG'
p177
g1
sS'PNF'
p178
g1
sS'XPS'
p179
g1
sS'TLA'
p180
g1
sS'MRX'
p181
g1
sS'MRZ'
p182
g1
sS'PQA'
p183
g1
sS'MRT'
p184
S'MR'
p185
sS'MRW'
p186
S'6V'
p187
sS'MRP'
p188
g1
sS'MRR'
p189
S'2G'
p190
sS'MRL'
p191
g1
sS'MRM'
p192
g1
sS'MRN'
p193
g1
sS'MRO'
p194
g1
sS'MRH'
p195
g1
sS'MRI'
p196
g1
sS'MRK'
p197
g1
sS'MRD'
p198
g1
sS'MRE'
p199
g1
sS'MRF'
p200
g1
sS'MRG'
p201
g1
sS'MRA'
p202
g1
sS'APX'
p203
g1
sS'APY'
p204
g1
sS'APR'
p205
g1
sS'APP'
p206
g1
sS'APQ'
p207
g1
sS'APV'
p208
g1
sS'APW'
p209
S'JW'
p210
sS'APT'
p211
g1
sS'APU'
p212
g1
sS'APJ'
p213
g1
sS'APH'
p214
g1
sS'API'
p215
g1
sS'APO'
p216
g1
sS'APL'
p217
g1
sS'APM'
p218
g1
sS'APC'
p219
g1
sS'APA'
p220
g1
sS'APF'
p221
g1
sS'APG'
p222
g1
sS'APD'
p223
S'1Z'
p224
sS'APE'
p225
g1
sS'MLX'
p226
g1
sS'YAK'
p227
g1
sS'CLL'
p228
g1
sS'CLH'
p229
S'CL'
p230
sS'PDY'
p231
g1
sS'PDV'
p232
g1
sS'VCA'
p233
g1
sS'PDT'
p234
S'PI'
p235
sS'VCH'
p236
g1
sS'VCI'
p237
g1
sS'VCM'
p238
g1
sS'VCN'
p239
g1
sS'PDR'
p240
g1
sS'VCR'
p241
g1
sS'VCT'
p242
g1
sS'PDQ'
p243
g1
sS'VCV'
p244
S'V0'
p245
sS'VCX'
p246
S'VC'
p247
sS'WKH'
p248
g1
sS'CLY'
p249
g1
sS'CLZ'
p250
g1
sS'CLT'
p251
g1
sS'CLU'
p252
g1
sS'CLW'
p253
S'C0'
p254
sS'PDC'
p255
S'BK'
p256
sS'CLR'
p257
g1
sS'DMC'
p258
g1
sS'DMI'
p259
g1
sS'DMJ'
p260
g1
sS'DML'
p261
g1
sS'DMO'
p262
S'E3'
p263
sS'XRA'
p264
g1
sS'PSH'
p265
g1
sS'PSI'
p266
g1
sS'PSN'
p267
g1
sS'PSL'
p268
g1
sS'PSC'
p269
g1
sS'PSA'
p270
g1
sS'PSF'
p271
g1
sS'PSG'
p272
g1
sS'PSD'
p273
S'TO'
p274
sS'PSE'
p275
g1
sS'PSZ'
p276
g1
sS'PSX'
p277
S'PS'
p278
sS'JLA'
p279
g1
sS'PSR'
p280
g1
sS'PSS'
p281
g1
sS'PSP'
p282
g1
sS'JLN'
p283
g1
sS'PSV'
p284
g1
sS'JLH'
p285
g1
sS'PST'
p286
g1
sS'BCL'
p287
g1
sS'BCN'
p288
g1
sS'BCH'
p289
g1
sS'BCI'
p290
g1
sS'BCK'
p291
g1
sS'BCF'
p292
S'B4'
p293
sS'BCB'
p294
g1
sS'HNR'
p295
g1
sS'BCY'
p296
S'WX'
p297
sS'BCT'
p298
g1
sS'BCV'
p299
g1
sS'BCR'
p300
g1
sS'BCS'
p301
S'QY'
p302
sS'SRC'
p303
g1
sS'SRA'
p304
g1
sS'SRF'
p305
g1
sS'SRG'
p306
g1
sS'SRD'
p307
g1
sS'SRJ'
p308
g1
sS'SRK'
p309
g1
sS'SRH'
p310
S'FT'
p311
sS'SRI'
p312
g1
sS'SRN'
p313
g1
sS'SRO'
p314
g1
sS'SRL'
p315
g1
sS'SRR'
p316
g1
sS'SRS'
p317
g1
sS'SRP'
p318
g1
sS'SRQ'
p319
S'DG'
p320
sS'SRV'
p321
g1
sS'SRW'
p322
g1
sS'SRT'
p323
g1
sS'SRU'
p324
g1
sS'SRZ'
p325
g1
sS'SRX'
p326
g1
sS'SRY'
p327
g1
sS'TDI'
p328
g1
sS'TDO'
p329
g1
sS'TDM'
p330
S'TQ'
p331
sS'TDC'
p332
g1
sS'TDB'
p333
g1
sS'NOK'
p334
S'DD'
p335
sS'TDG'
p336
g1
sS'TDE'
p337
g1
sS'TDY'
p338
g1
sS'TDX'
p339
g1
sS'NMB'
p340
S'SW'
p341
sS'TDR'
p342
g1
sS'NML'
p343
g1
sS'HLU'
p344
g1
sS'TDT'
p345
g1
sS'FHL'
p346
g1
sS'LOF'
p347
S'AX'
p348
sS'LOG'
p349
S'LC'
p350
sS'LOD'
p351
g1
sS'FHE'
p352
S'HW'
p353
sS'LOK'
p354
g1
sS'NOA'
p355
S'OA'
p356
sS'LOR'
p357
g1
sS'LOS'
p358
g1
sS'LOP'
p359
g1
sS'FHY'
p360
S'FH'
p361
sS'LOT'
p362
S'LO'
p363
sS'LOU'
p364
g1
sS'HLP'
p365
g1
sS'FHS'
p366
g1
sS'TJS'
p367
g1
sS'TJT'
p368
S'T7'
p369
sS'NOT'
p370
g1
sS'HLE'
p371
g1
sS'EBE'
p372
g1
sS'EBF'
p373
g1
sS'RJT'
p374
g1
sS'RJS'
p375
g1
sS'EBA'
p376
g1
sS'EBC'
p377
g1
sS'RJZ'
p378
g1
sS'EBJ'
p379
g1
sS'NOR'
p380
g1
sS'RJA'
p381
S'RJ'
p382
sS'EBS'
p383
g1
sS'RJM'
p384
g1
sS'DRY'
p385
g1
sS'DRX'
p386
g1
sS'DRU'
p387
S'6R'
p388
sS'DRT'
p389
g1
sS'DRK'
p390
S'KB'
p391
sS'DRM'
p392
g1
sS'DRO'
p393
g1
sS'DRN'
p394
g1
sS'DRC'
p395
g1
sS'DRB'
p396
g1
sS'DRE'
p397
g1
sS'DRD'
p398
g1
sS'CXP'
p399
S'XP'
p400
sS'CXS'
p401
S'E9'
p402
sS'CXA'
p403
S'MF'
p404
sS'CXH'
p405
S'XO'
p406
sS'CXI'
p407
S'8C'
p408
sS'CXJ'
p409
g1
sS'CXN'
p410
g1
sS'CXO'
p411
g1
sS'AJX'
p412
S'NQ'
p413
sS'GOL'
p414
g1
sS'MLF'
p415
g1
sS'GOJ'
p416
g1
sS'MLK'
p417
g1
sS'AJR'
p418
g1
sS'GOF'
p419
g1
sS'MLN'
p420
g1
sS'AJU'
p421
g1
sS'AJV'
p422
g1
sS'AJW'
p423
g1
sS'MPD'
p424
S'A7'
p425
sS'MPE'
p426
S'5T'
p427
sS'AVX'
p428
g1
sS'AVY'
p429
g1
sS'AVZ'
p430
g1
sS'MPA'
p431
g1
sS'AVT'
p432
g1
sS'AVU'
p433
g1
sS'AVV'
p434
g1
sS'AVW'
p435
g1
sS'AVP'
p436
g1
sS'AVQ'
p437
g1
sS'AVR'
p438
g1
sS'AVS'
p439
g1
sS'AVM'
p440
g1
sS'AVN'
p441
S'NF'
p442
sS'AVO'
p443
g1
sS'AVH'
p444
g1
sS'MPS'
p445
g1
sS'AVJ'
p446
g1
sS'AVK'
p447
g1
sS'AVD'
p448
g1
sS'AVE'
p449
S'VE'
p450
sS'AVF'
p451
g1
sS'AVG'
p452
g1
sS'AVA'
p453
S'AV'
p454
sS'MPX'
p455
S'QO'
p456
sS'MLU'
p457
g1
sS'AJA'
p458
g1
sS'AJB'
p459
g1
sS'AJF'
p460
g1
sS'DER'
p461
g1
sS'DET'
p462
g1
sS'JDC'
p463
g1
sS'KZR'
p464
S'KC'
p465
sS'KZS'
p466
g1
sS'KZW'
p467
g1
sS'KZU'
p468
S'GO'
p469
sS'KZA'
p470
g1
sS'KZE'
p471
g1
sS'KZH'
p472
g1
sS'KZM'
p473
g1
sS'JDP'
p474
g1
sS'RLM'
p475
g1
sS'VAI'
p476
g1
sS'VAN'
p477
g1
sS'VAL'
p478
S'VC'
p479
sS'VAM'
p480
g1
sS'VAB'
p481
g1
sS'VAC'
p482
g1
sS'VAA'
p483
g1
sS'VAG'
p484
g1
sS'VAD'
p485
g1
sS'VAE'
p486
g1
sS'VAZ'
p487
g1
sS'RLN'
p488
S'QL'
p489
sS'VAS'
p490
S'V8'
p491
sS'VAP'
p492
S'9R'
p493
sS'VAV'
p494
g1
sS'VAT'
p495
g1
sS'VAU'
p496
S'VA'
p497
sS'EDD'
p498
g1
sS'EDJ'
p499
g1
sS'LMT'
p500
g1
sS'UVS'
p501
g1
sS'UVT'
p502
g1
sS'UVM'
p503
g1
sS'UVN'
p504
g1
sS'UVA'
p505
g1
sS'UVG'
p506
g1
sS'LMO'
p507
g1
sS'RLT'
p508
g1
sS'RWA'
p509
g1
sS'RWB'
p510
g1
sS'RWC'
p511
g1
sS'RWD'
p512
S'WB'
p513
sS'RWE'
p514
g1
sS'RWG'
p515
g1
sS'RWL'
p516
g1
sS'RWS'
p517
g1
sS'RWY'
p518
g1
sS'LMG'
p519
g1
sS'DOJ'
p520
g1
sS'DOI'
p521
g1
sS'DON'
p522
g1
sS'DOM'
p523
g1
sS'DOC'
p524
g1
sS'DOA'
p525
S'DO'
p526
sS'DOD'
p527
g1
sS'DOR'
p528
g1
sS'DOP'
p529
g1
sS'DOT'
p530
g1
sS'XTR'
p531
g1
sS'XTA'
p532
g1
sS'XTO'
p533
g1
sS'XTJ'
p534
g1
sS'PUE'
p535
g1
sS'PUA'
p536
S'PU'
p537
sS'JJM'
p538
g1
sS'PUT'
p539
g1
sS'PUV'
p540
g1
sS'PUR'
p541
g1
sS'BAV'
p542
g1
sS'BAW'
p543
S'BA'
p544
sS'BAT'
p545
g1
sS'BAU'
p546
g1
sS'BAR'
p547
g1
sS'BAS'
p548
g1
sS'BAP'
p549
g1
sS'BAX'
p550
g1
sS'BAY'
p551
g1
sS'BAF'
p552
g1
sS'BAG'
p553
S'DI'
p554
sS'EQZ'
p555
g1
sS'BAB'
p556
g1
sS'BAC'
p557
g1
sS'BAA'
p558
g1
sS'BAN'
p559
g1
sS'BAL'
p560
g1
sS'BAM'
p561
g1
sS'BAJ'
p562
S'8Q'
p563
sS'BAK'
p564
g1
sS'BAH'
p565
g1
sS'STD'
p566
g1
sS'STE'
p567
g1
sS'STF'
p568
g1
sS'STG'
p569
g1
sS'STA'
p570
g1
sS'STB'
p571
g1
sS'STC'
p572
g1
sS'STL'
p573
g1
sS'STN'
p574
g1
sS'STO'
p575
g1
sS'STH'
p576
g1
sS'STI'
p577
g1
sS'STJ'
p578
g1
sS'STK'
p579
g1
sS'STT'
p580
g1
sS'STU'
p581
g1
sS'STV'
p582
g1
sS'STW'
p583
g1
sS'STQ'
p584
g1
sS'STR'
p585
g1
sS'STX'
p586
g1
sS'STY'
p587
g1
sS'TFL'
p588
S'OR'
p589
sS'TFO'
p590
g1
sS'TFN'
p591
g1
sS'TFI'
p592
g1
sS'TFH'
p593
g1
sS'TFK'
p594
g1
sS'NCP'
p595
g1
sS'TFG'
p596
g1
sS'TFF'
p597
g1
sS'TFA'
p598
g1
sS'TFB'
p599
g1
sS'NCH'
p600
g1
sS'NCL'
p601
g1
sS'NCM'
p602
g1
sS'NCN'
p603
g1
sS'NCO'
p604
g1
sS'TFU'
p605
g1
sS'TFT'
p606
g1
sS'NCB'
p607
g1
sS'NCC'
p608
g1
sS'NCE'
p609
g1
sS'NCF'
p610
g1
sS'NCG'
p611
g1
sS'LID'
p612
S'D4'
p613
sS'LIE'
p614
g1
sS'LIF'
p615
g1
sS'FNT'
p616
g1
sS'LIA'
p617
S'LI'
p618
sS'LIB'
p619
g1
sS'LIL'
p620
S'TE'
p621
sS'LIN'
p622
g1
sS'NEL'
p623
g1
sS'FNY'
p624
g1
sS'FNX'
p625
g1
sS'FNG'
p626
g1
sS'FNF'
p627
g1
sS'LIV'
p628
g1
sS'FNC'
p629
S'4S'
p630
sS'LIQ'
p631
g1
sS'LIR'
p632
g1
sS'LIS'
p633
g1
sS'FNO'
p634
g1
sS'FNM'
p635
g1
sS'FNL'
p636
g1
sS'FNK'
p637
g1
sS'NEF'
p638
g1
sS'NEG'
p639
g1
sS'NEE'
p640
g1
sS'ACO'
p641
g1
sS'ACN'
p642
g1
sS'ACL'
p643
S'FS'
p644
sS'KAC'
p645
S'KU'
p646
sS'KAA'
p647
g1
sS'KAE'
p648
g1
sS'KAD'
p649
g1
sS'KAJ'
p650
g1
sS'KAI'
p651
g1
sS'KAH'
p652
g1
sS'KAO'
p653
g1
sS'KAM'
p654
g1
sS'KAL'
p655
S'KE'
p656
sS'KAS'
p657
g1
sS'KAP'
p658
S'9K'
p659
sS'KAW'
p660
g1
sS'RHL'
p661
g1
sS'KAT'
p662
g1
sS'NEZ'
p663
g1
sS'RHC'
p664
S'8L'
p665
sS'RHD'
p666
g1
sS'ACU'
p667
g1
sS'ACY'
p668
g1
sS'OXO'
p669
g1
sS'OXE'
p670
g1
sS'ATF'
p671
g1
sS'ATG'
p672
g1
sS'ATD'
p673
g1
sS'ATE'
p674
g1
sS'ATB'
p675
g1
sS'ATC'
p676
S'TC'
p677
sS'ATA'
p678
g1
sS'ATN'
p679
S'8C'
p680
sS'ATM'
p681
S'FO'
p682
sS'ATJ'
p683
g1
sS'ATK'
p684
g1
sS'ATH'
p685
g1
sS'ATI'
p686
S'HC'
p687
sS'ATV'
p688
g1
sS'ATW'
p689
g1
sS'ATT'
p690
g1
sS'ATU'
p691
g1
sS'ATR'
p692
g1
sS'ATS'
p693
g1
sS'ATP'
p694
g1
sS'ATQ'
p695
g1
sS'RGT'
p696
g1
sS'ATZ'
p697
g1
sS'ATX'
p698
g1
sS'CFN'
p699
g1
sS'RGA'
p700
g1
sS'PNP'
p701
g1
sS'PNS'
p702
g1
sS'PNR'
p703
S'PV'
p704
sS'CFC'
p705
g1
sS'EMX'
p706
S'3W'
p707
sS'CFZ'
p708
g1
sS'PNA'
p709
g1
sS'PNC'
p710
g1
sS'PNE'
p711
g1
sS'PND'
p712
g1
sS'XIA'
p713
g1
sS'GDQ'
p714
g1
sS'GDA'
p715
g1
sS'MEP'
p716
S'YX'
p717
sS'VGN'
p718
S'VK'
p719
sS'VGD'
p720
g1
sS'VGF'
p721
g1
sS'MER'
p722
g1
sS'PRG'
p723
g1
sS'VGC'
p724
g1
sS'PRF'
p725
S'PW'
p726
sS'VGV'
p727
g1
sS'VGS'
p728
g1
sS'WWS'
p729
g1
sS'WWD'
p730
S'CN'
p731
sS'WWG'
p732
g1
sS'WWM'
p733
g1
sS'WWL'
p734
g1
sS'WWI'
p735
g1
sS'FSA'
p736
g1
sS'FSB'
p737
g1
sS'FSC'
p738
S'HK'
p739
sS'FSD'
p740
g1
sS'FSH'
p741
g1
sS'FSL'
p742
g1
sS'FSR'
p743
g1
sS'FST'
p744
g1
sS'FSU'
p745
g1
sS'FSW'
p746
S'F3'
p747
sS'FSX'
p748
g1
sS'PRT'
p749
g1
sS'RUH'
p750
g1
sS'RUN'
p751
g1
sS'RUM'
p752
g1
sS'RUC'
p753
g1
sS'RUA'
p754
g1
sS'RUD'
p755
g1
sS'RUZ'
p756
g1
sS'RUR'
p757
g1
sS'RUS'
p758
S'C9'
p759
sS'DIN'
p760
g1
sS'JHM'
p761
g1
sS'DIA'
p762
g1
sS'JHN'
p763
g1
sS'DIX'
p764
g1
sS'DIP'
p765
g1
sS'DIR'
p766
S'AW'
p767
sS'DIS'
p768
g1
sS'IRX'
p769
g1
sS'IRY'
p770
g1
sS'IRZ'
p771
g1
sS'UTA'
p772
S'UT'
p773
sS'UTG'
p774
g1
sS'IRP'
p775
g1
sS'IRQ'
p776
g1
sS'IRR'
p777
g1
sS'UTN'
p778
g1
sS'IRU'
p779
g1
sS'IRV'
p780
g1
sS'IRW'
p781
g1
sS'IRH'
p782
g1
sS'IRI'
p783
g1
sS'IRJ'
p784
g1
sS'IRK'
p785
S'Y9'
p786
sS'IRL'
p787
g1
sS'IRM'
p788
S'W5'
p789
sS'UTT'
p790
g1
sS'IRO'
p791
g1
sS'IRA'
p792
S'IR'
p793
sS'UTX'
p794
g1
sS'UTY'
p795
S'QQ'
p796
sS'IRD'
p797
g1
sS'IRE'
p798
g1
sS'IRF'
p799
g1
sS'IRG'
p800
g1
sS'PWF'
p801
S'8W'
p802
sS'PWD'
p803
g1
sS'PWC'
p804
g1
sS'PWA'
p805
g1
sS'PWL'
p806
g1
sS'NAB'
p807
g1
sS'HBL'
p808
g1
sS'NAA'
p809
g1
sS'NAF'
p810
g1
sS'NAD'
p811
g1
sS'NAE'
p812
g1
sS'NAJ'
p813
g1
sS'NAH'
p814
g1
sS'NAI'
p815
g1
sS'NAN'
p816
g1
sS'BOU'
p817
S'BO'
p818
sS'NAL'
p819
g1
sS'NAM'
p820
g1
sS'NAR'
p821
g1
sS'NAS'
p822
S'UE'
p823
sS'NAP'
p824
g1
sS'NAV'
p825
g1
sS'NAT'
p826
g1
sS'NAU'
p827
g1
sS'NAZ'
p828
g1
sS'BOA'
p829
g1
sS'NAX'
p830
S'DY'
p831
sS'NAY'
p832
g1
sS'BOD'
p833
g1
sS'BOE'
p834
g1
sS'BOF'
p835
g1
sS'COT'
p836
g1
sS'COY'
p837
S'7C'
p838
sS'PEV'
p839
g1
sS'SVN'
p840
g1
sS'SVO'
p841
g1
sS'SVL'
p842
g1
sS'SVM'
p843
g1
sS'SVJ'
p844
g1
sS'SVK'
p845
S'GM'
p846
sS'SVH'
p847
g1
sS'SVI'
p848
g1
sS'SVF'
p849
g1
sS'SVD'
p850
g1
sS'SVE'
p851
g1
sS'SVA'
p852
S'SV'
p853
sS'SVX'
p854
g1
sS'SVY'
p855
g1
sS'SVW'
p856
g1
sS'SVT'
p857
g1
sS'SVR'
p858
S'U6'
p859
sS'SVS'
p860
g1
sS'COA'
p861
S'CO'
p862
sS'GXA'
p863
g1
sS'GXL'
p864
g1
sS'GXY'
p865
g1
sS'PEI'
p866
g1
sS'FLY'
p867
S'SH'
p868
sS'FLX'
p869
g1
sS'LKL'
p870
g1
sS'FLZ'
p871
S'QH'
p872
sS'FLP'
p873
g1
sS'FLS'
p874
g1
sS'LKE'
p875
g1
sS'FLU'
p876
g1
sS'FLT'
p877
S'B5'
p878
sS'FLW'
p879
g1
sS'LKA'
p880
g1
sS'FLI'
p881
S'RC'
p882
sS'FLH'
p883
g1
sS'FLK'
p884
g1
sS'FLM'
p885
S'F2'
p886
sS'FLL'
p887
g1
sS'FLO'
p888
g1
sS'LKY'
p889
g1
sS'FLA'
p890
g1
sS'LKW'
p891
g1
sS'FLC'
p892
g1
sS'LKR'
p893
g1
sS'LKS'
p894
g1
sS'LKP'
p895
g1
sS'FLF'
p896
g1
sS'PEA'
p897
g1
sS'COO'
p898
g1
sS'PEC'
p899
S'Q8'
p900
sS'KCE'
p901
g1
sS'KCA'
p902
g1
sS'AXF[citation needed]'
p903
S'HJ'
p904
sS'EZY'
p905
S'U2'
p906
sS'OZJ'
p907
S'O7'
p908
sS'OZW'
p909
g1
sS'OZU'
p910
g1
sS'OZR'
p911
S'OZ'
p912
sS'AZI'
p913
S'ZS'
p914
sS'AZK'
p915
g1
sS'AZL'
p916
g1
sS'AZM'
p917
g1
sS'AZN'
p918
S'Z8'
p919
sS'AZA'
p920
S'AZ'
p921
sS'AZB'
p922
g1
sS'AZE'
p923
S'ZE'
p924
sS'AZF'
p925
g1
sS'AZG'
p926
g1
sS'AZX'
p927
g1
sS'AZY'
p928
g1
sS'AZZ'
p929
g1
sS'AZP'
p930
g1
sS'AZQ'
p931
S'ZP'
p932
sS'AZR'
p933
g1
sS'AZS'
p934
g1
sS'AZT'
p935
g1
sS'AZU'
p936
S'AD'
p937
sS'AZV'
p938
g1
sS'AZW'
p939
S'UM'
p940
sS'NLT'
p941
g1
sS'NLY'
p942
S'HG'
p943
sS'HMF'
p944
g1
sS'NLL'
p945
g1
sS'TKY'
p946
S'9I'
p947
sS'XKA'
p948
g1
sS'XKX'
p949
g1
sS'MKA'
p950
g1
sS'AIU'
p951
g1
sS'MKN'
p952
S'M8'
p953
sS'GNX'
p954
g1
sS'MKL'
p955
g1
sS'VER'
p956
g1
sS'VES'
p957
g1
sS'AIQ'
p958
S'FD'
p959
sS'VEX'
p960
S'TV'
p961
sS'VEG'
p962
g1
sS'VEE'
p963
g1
sS'VEC'
p964
g1
sS'VEA'
p965
g1
sS'VEN'
p966
g1
sS'MKH'
p967
g1
sS'VEJ'
p968
g1
sS'VEI'
p969
g1
sS'GNC'
p970
g1
sS'GNA'
p971
g1
sS'MKS'
p972
g1
sS'FIA'
p973
g1
sS'NFC'
p974
g1
sS'GND'
p975
g1
sS'GNJ'
p976
g1
sS'GNL'
p977
g1
sS'RSL'
p978
S'SL'
p979
sS'RSM'
p980
g1
sS'RSN'
p981
g1
sS'RSO'
p982
S'E4'
p983
sS'RSH'
p984
S'S2'
p985
sS'RSI'
p986
g1
sS'RSK'
p987
g1
sS'RSE'
p988
g1
sS'RSF'
p989
g1
sS'RSA'
p990
g1
sS'RSB'
p991
g1
sS'RSC'
p992
g1
sS'RST'
p993
g1
sS'RSV'
p994
g1
sS'RSQ'
p995
g1
sS'RSR'
p996
S'BF'
p997
sS'RSS'
p998
g1
sS'JFK'
p999
g1
sS'DKT'
p1000
g1
sS'JFL'
p1001
g1
sS'JFC'
p1002
g1
sS'DKY'
p1003
g1
sS'JFY'
p1004
g1
sS'DKE'
p1005
g1
sS'DKA'
p1006
g1
sS'DKN'
p1007
g1
sS'DKH'
p1008
g1
sS'URG'
p1009
S'3N'
p1010
sS'URA'
p1011
g1
sS'URN'
p1012
S'3T'
p1013
sS'URJ'
p1014
g1
sS'URV'
p1015
g1
sS'URP'
p1016
g1
sS'URR'
p1017
g1
sS'URY'
p1018
g1
sS'PYZ'
p1019
g1
sS'IPA'
p1020
g1
sS'PYR'
p1021
g1
sS'IPN'
p1022
g1
sS'IPL'
p1023
g1
sS'IPM'
p1024
g1
sS'IPR'
p1025
S'C3'
p1026
sS'IPT'
p1027
g1
sS'PYC'
p1028
g1
sS'NGE'
p1029
g1
sS'NGF'
p1030
g1
sS'NGA'
p1031
g1
sS'NGC'
p1032
g1
sS'NGO'
p1033
g1
sS'NGK'
p1034
g1
sS'NGV'
p1035
g1
sS'HDC'
p1036
g1
sS'NGR'
p1037
g1
sS'NGX'
p1038
g1
sS'HDI'
p1039
g1
sS'BMA'
p1040
S'BD'
p1041
sS'BMD'
p1042
g1
sS'BME'
p1043
g1
sS'BMJ'
p1044
S'CH'
p1045
sS'BMK'
p1046
g1
sS'BMH'
p1047
g1
sS'BMI'
p1048
S'WW'
p1049
sS'BMN'
p1050
g1
sS'BML'
p1051
S'5Z'
p1052
sS'BMM'
p1053
S'8A'
p1054
sS'BMR'
p1055
g1
sS'BMV'
p1056
g1
sS'BMW'
p1057
g1
sS'BMX'
p1058
g1
sS'SHP'
p1059
g1
sS'SHQ'
p1060
g1
sS'SHR'
p1061
g1
sS'SHS'
p1062
g1
sS'SHT'
p1063
g1
sS'SHU'
p1064
g1
sS'SHV'
p1065
g1
sS'SHW'
p1066
g1
sS'SHX'
p1067
g1
sS'SHY'
p1068
S'ZY'
p1069
sS'RMP'
p1070
g1
sS'SHA'
p1071
g1
sS'SHB'
p1072
g1
sS'SHC'
p1073
g1
sS'SHD'
p1074
g1
sS'SHE'
p1075
g1
sS'SHF'
p1076
g1
sS'SHG'
p1077
g1
sS'SHH'
p1078
g1
sS'SHI'
p1079
g1
sS'SHJ'
p1080
g1
sS'SHK'
p1081
g1
sS'SHL'
p1082
g1
sS'SHM'
p1083
g1
sS'SHN'
p1084
g1
sS'LNX'
p1085
g1
sS'TBX'
p1086
g1
sS'MGA'
p1087
g1
sS'MGG'
p1088
g1
sS'RMT'
p1089
g1
sS'MGE'
p1090
g1
sS'MGK'
p1091
g1
sS'MGI'
p1092
g1
sS'TBR'
p1093
g1
sS'MGO'
p1094
g1
sS'MGM'
p1095
g1
sS'MGL'
p1096
S'OM'
p1097
sS'TBI'
p1098
g1
sS'TBH'
p1099
g1
sS'TBM'
p1100
g1
sS'TBL'
p1101
g1
sS'TBO'
p1102
g1
sS'TBN'
p1103
g1
sS'TBA'
p1104
S'TR'
p1105
sS'TBC'
p1106
g1
sS'MGX'
p1107
S'YM'
p1108
sS'TBD'
p1109
g1
sS'TBG'
p1110
S'M7'
p1111
sS'LUR'
p1112
S'TD'
p1113
sS'LUT'
p1114
g1
sS'LUV'
p1115
g1
sS'LUZ'
p1116
g1
sS'ESK'
p1117
S'NE'
p1118
sS'ECJ'
p1119
g1
sS'LUC'
p1120
g1
sS'LUE'
p1121
g1
sS'LUK'
p1122
g1
sS'RMA'
p1123
g1
sS'ECS'
p1124
g1
sS'ECQ'
p1125
g1
sS'NFT'
p1126
g1
sS'QFA'
p1127
S'QF'
p1128
sS'KEN'
p1129
S'M5'
p1130
sS'KEK'
p1131
g1
sS'KEE'
p1132
S'BZ'
p1133
sS'LNC'
p1134
g1
sS'KEY'
p1135
g1
sS'KES'
p1136
g1
sS'ITA'
p1137
g1
sS'OTL'
p1138
g1
sS'OTM'
p1139
g1
sS'OTN'
p1140
g1
sS'OTA'
p1141
g1
sS'OTG'
p1142
g1
sS'OTP'
p1143
g1
sS'OTR'
p1144
g1
sS'AXR'
p1145
g1
sS'AXS'
p1146
g1
sS'AXP'
p1147
g1
sS'AXQ'
p1148
g1
sS'AXV'
p1149
g1
sS'AXX'
p1150
g1
sS'AXY'
p1151
S'6V'
p1152
sS'AXB'
p1153
S'IX'
p1154
sS'AXD'
p1155
g1
sS'AXK'
p1156
g1
sS'AXH'
p1157
g1
sS'AXI'
p1158
g1
sS'AXN'
p1159
g1
sS'AXL'
p1160
S'XT'
p1161
sS'AXM'
p1162
S'AK'
p1163
sS'MZS'
p1164
S'M2'
p1165
sS'KQA'
p1166
S'KQ'
p1167
sS'MZL'
p1168
g1
sS'MZK'
p1169
g1
sS'XME'
p1170
g1
sS'XMG'
p1171
g1
sS'XMA'
p1172
g1
sS'VVG'
p1173
g1
sS'XMX'
p1174
g1
sS'SXY'
p1175
g1
sS'XMR'
p1176
g1
sS'XMS'
p1177
g1
sS'YYY'
p1178
g1
sS'WSA'
p1179
g1
sS'HYA'
p1180
g1
sS'WSC'
p1181
g1
sS'HYC'
p1182
g1
sS'HYD'
p1183
g1
sS'WSG'
p1184
S'WT'
p1185
sS'WSF'
p1186
S'WZ'
p1187
sS'WSI'
p1188
g1
sS'WSM'
p1189
g1
sS'WSL'
p1190
g1
sS'HYR'
p1191
g1
sS'WST'
p1192
g1
sS'VKG'
p1193
g1
sS'CYT'
p1194
g1
sS'POW'
p1195
g1
sS'FWL'
p1196
S'RF'
p1197
sS'FWI'
p1198
S'TX'
p1199
sS'FWK'
p1200
g1
sS'FWD'
p1201
g1
sS'FWA'
p1202
S'I4'
p1203
sS'FWC'
p1204
g1
sS'FWY'
p1205
g1
sS'FWZ'
p1206
g1
sS'FWQ'
p1207
g1
sS'PON'
p1208
g1
sS'POL'
p1209
g1
sS'POI'
p1210
g1
sS'POE'
p1211
S'PD'
p1212
sS'POB'
p1213
g1
sS'CYN'
p1214
g1
sS'POA'
p1215
g1
sS'JDI'
p1216
g1
sS'JDG'
p1217
g1
sS'DES'
p1218
g1
sS'JDA'
p1219
g1
sS'DEV'
p1220
g1
sS'DEI'
p1221
g1
sS'DEL'
p1222
g1
sS'DEA'
p1223
g1
sS'DEE'
p1224
g1
sS'DEF'
p1225
g1
sS'DEG'
p1226
g1
sS'ACC'
p1227
g1
sS'UPL'
p1228
g1
sS'UPA'
p1229
S'GS'
p1230
sS'UPS'
p1231
S'5X'
p1232
sS'IVE'
p1233
g1
sS'IVA'
p1234
g1
sS'IVJ'
p1235
g1
sS'IVT'
p1236
g1
sS'IVW'
p1237
g1
sS'IVR'
p1238
g1
sS'IVS'
p1239
g1
sS'HFY'
p1240
S'5K'
p1241
sS'ACB'
p1242
g1
sS'ACA'
p1243
S'AC'
p1244
sS'ACG'
p1245
g1
sS'ACF'
p1246
g1
sS'ACE'
p1247
g1
sS'ACD'
p1248
g1
sS'ACK'
p1249
S'DV'
p1250
sS'ACJ'
p1251
g1
sS'ACI'
p1252
S'SB'
p1253
sS'HFR'
p1254
S'8H'
p1255
sS'NEB'
p1256
g1
sS'NEC'
p1257
g1
sS'ACM'
p1258
g1
sS'NEA'
p1259
S'EJ'
p1260
sS'ACS'
p1261
g1
sS'ACR'
p1262
g1
sS'ACQ'
p1263
S'N6'
p1264
sS'ACP'
p1265
S'8V'
p1266
sS'ACW'
p1267
g1
sS'ACV'
p1268
g1
sS'NEX'
p1269
g1
sS'ACT'
p1270
g1
sS'ACZ'
p1271
g1
sS'NET'
p1272
g1
sS'ACX'
p1273
g1
sS'NER'
p1274
g1
sS'NES'
p1275
S'JH'
p1276
sS'BKF'
p1277
g1
sS'BKA'
p1278
S'B4'
p1279
sS'BKL'
p1280
g1
sS'BKH'
p1281
g1
sS'BKJ'
p1282
g1
sS'BKV'
p1283
g1
sS'GGF'
p1284
g1
sS'BKP'
p1285
S'PG'
p1286
sS'SJY'
p1287
g1
sS'SJT'
p1288
g1
sS'SJJ'
p1289
g1
sS'SJN'
p1290
g1
sS'SJL'
p1291
g1
sS'GGL'
p1292
g1
sS'SJC'
p1293
g1
sS'SJA'
p1294
g1
sS'SJE'
p1295
g1
sS'MEE'
p1296
g1
sS'MED'
p1297
g1
sS'MEF'
p1298
g1
sS'MEA'
p1299
S'ME'
p1300
sS'MEC'
p1301
g1
sS'MEM'
p1302
g1
sS'MEL'
p1303
g1
sS'MEI'
p1304
g1
sS'MEK'
p1305
g1
sS'MEJ'
p1306
g1
sS'MET'
p1307
g1
sS'GDB'
p1308
g1
sS'GDD'
p1309
g1
sS'GDE'
p1310
g1
sS'MES'
p1311
S'XJ'
p1312
sS'GDG'
p1313
g1
sS'GDH'
p1314
g1
sS'GDK'
p1315
g1
sS'MEY'
p1316
g1
sS'MEX'
p1317
g1
sS'GDN'
p1318
g1
sS'LWD'
p1319
g1
sS'BOC'
p1320
g1
sS'KOE'
p1321
g1
sS'KGT'
p1322
g1
sS'KGZ'
p1323
S'N5'
p1324
sS'KGA'
p1325
S'R8'
p1326
sS'KGC'
p1327
g1
sS'KGB'
p1328
g1
sS'KGD'
p1329
g1
sS'EZE'
p1330
S'T3'
p1331
sS'KGL'
p1332
S'7K'
p1333
sS'EZB'
p1334
g1
sS'CPH'
p1335
g1
sS'CPI'
p1336
g1
sS'CPJ'
p1337
g1
sS'CPL'
p1338
g1
sS'CPM'
p1339
g1
sS'CPN'
p1340
S'RV'
p1341
sS'CPO'
p1342
g1
sS'ACH'
p1343
g1
sS'CPA'
p1344
S'CX'
p1345
sS'CPB'
p1346
g1
sS'CPD'
p1347
g1
sS'CPF'
p1348
g1
sS'CPG'
p1349
g1
sS'CPX'
p1350
g1
sS'CPZ'
p1351
S'CP'
p1352
sS'CPR'
p1353
g1
sS'CPS'
p1354
g1
sS'CPT'
p1355
g1
sS'CPV'
p1356
g1
sS'CPW'
p1357
g1
sS'OVV'
p1358
g1
sS'OVC'
p1359
g1
sS'CAK'
p1360
g1
sS'OVA'
p1361
g1
sS'OVE'
p1362
g1
sS'OVI'
p1363
g1
sS'NFL'
p1364
g1
sS'CAJ'
p1365
g1
sS'TRL'
p1366
g1
sS'CAI'
p1367
g1
sS'MXX'
p1368
g1
sS'MXT'
p1369
g1
sS'MXU'
p1370
g1
sS'MXS'
p1371
g1
sS'MXP'
p1372
g1
sS'MXQ'
p1373
g1
sS'MXO'
p1374
g1
sS'MXL'
p1375
S'8M'
p1376
sS'MXJ'
p1377
S'MY'
p1378
sS'MXE'
p1379
g1
sS'MXB'
p1380
g1
sS'MXC'
p1381
S'GJ'
p1382
sS'MXA'
p1383
S'MX'
p1384
sS'AWJ'
p1385
g1
sS'ZMA'
p1386
g1
sS'RLL'
p1387
g1
sS'SBO'
p1388
g1
sS'RLE'
p1389
S'C7'
p1390
sS'VIB'
p1391
g1
sS'VIC'
p1392
g1
sS'VIF'
p1393
g1
sS'VIG'
p1394
g1
sS'VID'
p1395
g1
sS'VIE'
p1396
g1
sS'VIK'
p1397
g1
sS'VIH'
p1398
g1
sS'TYG'
p1399
g1
sS'VIN'
p1400
g1
sS'VIL'
p1401
g1
sS'VIM'
p1402
S'VL'
p1403
sS'VIR'
p1404
S'VS'
p1405
sS'VIP'
p1406
g1
sS'VIV'
p1407
S'VB'
p1408
sS'VIZ'
p1409
g1
sS'TYW'
p1410
g1
sS'TYR'
p1411
S'VO'
p1412
sS'FUT'
p1413
g1
sS'FUA'
p1414
S'FH'
p1415
sS'FUN'
p1416
g1
sS'FUJ'
p1417
g1
sS'ABL'
p1418
S'BX'
p1419
sS'ABR'
p1420
S'AK'
p1421
sS'HGK'
p1422
S'N8'
p1423
sS'JBU'
p1424
S'B6'
p1425
sS'JBR'
p1426
g1
sS'JBA'
p1427
S'JB'
p1428
sS'HGD'
p1429
g1
sS'DGO'
p1430
g1
sS'DGT'
p1431
g1
sS'DGX'
p1432
g1
sS'ODM'
p1433
g1
sS'UNR'
p1434
g1
sS'UNS'
p1435
g1
sS'UNT'
p1436
g1
sS'UNU'
p1437
g1
sS'UNY'
p1438
g1
sS'UNC'
p1439
g1
sS'UND'
p1440
g1
sS'UNF'
p1441
g1
sS'UNJ'
p1442
g1
sS'ITN'
p1443
g1
sS'ITO'
p1444
g1
sS'OMA'
p1445
S'WY'
p1446
sS'OMG'
p1447
g1
sS'OMF'
p1448
g1
sS'ITH'
p1449
g1
sS'ITF'
p1450
g1
sS'ITE'
p1451
g1
sS'ITC'
p1452
g1
sS'OML'
p1453
g1
sS'OMS'
p1454
S'N3'
p1455
sS'OMR'
p1456
g1
sS'ITX'
p1457
S'IK'
p1458
sS'ITW'
p1459
g1
sS'ITU'
p1460
g1
sS'ITR'
p1461
g1
sS'ITS'
p1462
g1
sS'AAE'
p1463
g1
sS'AAD'
p1464
g1
sS'AAG'
p1465
S'KI'
p1466
sS'AAF'
p1467
S'ZI'
p1468
sS'AAA'
p1469
S'AN'
p1470
sS'AAC'
p1471
g1
sS'AAB'
p1472
S'W9'
p1473
sS'AAM'
p1474
g1
sS'AAL'
p1475
S'AA'
p1476
sS'AAO'
p1477
g1
sS'AAN'
p1478
S'OB'
p1479
sS'AAI'
p1480
g1
sS'RDW'
p1481
g1
sS'AAK'
p1482
g1
sS'AAJ'
p1483
g1
sS'AAU'
p1484
g1
sS'AAT'
p1485
S'OB'
p1486
sS'AAW'
p1487
g1
sS'AAV'
p1488
g1
sS'AAQ'
p1489
g1
sS'AAP'
p1490
g1
sS'AAS'
p1491
S'SO'
p1492
sS'AAR'
p1493
g1
sS'AAY'
p1494
S'G4'
p1495
sS'AAX'
p1496
g1
sS'RDP'
p1497
g1
sS'BIN'
p1498
g1
sS'BIL'
p1499
g1
sS'RDS'
p1500
g1
sS'BIH'
p1501
S'BS'
p1502
sS'BIG'
p1503
g1
sS'BID'
p1504
g1
sS'ELM'
p1505
g1
sS'BIB'
p1506
g1
sS'BIZ'
p1507
g1
sS'BIV'
p1508
g1
sS'BIR'
p1509
g1
sS'BIS'
p1510
g1
sS'SLX'
p1511
g1
sS'SLY'
p1512
g1
sS'SLZ'
p1513
g1
sS'SLU'
p1514
g1
sS'SLV'
p1515
g1
sS'SLW'
p1516
g1
sS'SLP'
p1517
g1
sS'SLQ'
p1518
g1
sS'SLS'
p1519
g1
sS'SLL'
p1520
S'6Q'
p1521
sS'SLM'
p1522
S'PY'
p1523
sS'SLN'
p1524
g1
sS'SLO'
p1525
g1
sS'SLH'
p1526
g1
sS'SLI'
p1527
S'5D'
p1528
sS'SLK'
p1529
S'MI'
p1530
sS'SLD'
p1531
g1
sS'SLE'
p1532
g1
sS'SLF'
p1533
g1
sS'SLG'
p1534
g1
sS'SLA'
p1535
S'LJ'
p1536
sS'SLB'
p1537
g1
sS'MCO'
p1538
g1
sS'MCN'
p1539
g1
sS'MCM'
p1540
g1
sS'MCL'
p1541
g1
sS'MCK'
p1542
S'CC'
p1543
sS'MCH'
p1544
g1
sS'MCG'
p1545
g1
sS'MCF'
p1546
g1
sS'MCE'
p1547
g1
sS'MCD'
p1548
g1
sS'MCC'
p1549
g1
sS'GFW'
p1550
g1
sS'GFT'
p1551
g1
sS'GFI'
p1552
S'8B'
p1553
sS'GFN'
p1554
g1
sS'GFO'
p1555
g1
sS'MCY'
p1556
g1
sS'MCX'
p1557
g1
sS'MCV'
p1558
g1
sS'GFA'
p1559
g1
sS'MCS'
p1560
g1
sS'GFG'
p1561
S'QB'
p1562
sS'GFD'
p1563
g1
sS'MCP'
p1564
g1
sS'EXF'
p1565
g1
sS'EXG'
p1566
g1
sS'EXE'
p1567
g1
sS'EXB'
p1568
g1
sS'EXC'
p1569
g1
sS'EXA'
p1570
S'MB'
p1571
sS'EXN'
p1572
g1
sS'EXL'
p1573
S'CQ'
p1574
sS'EXM'
p1575
g1
sS'EXJ'
p1576
g1
sS'EXK'
p1577
S'OW'
p1578
sS'EXH'
p1579
g1
sS'EXV'
p1580
S'8D'
p1581
sS'RDM'
p1582
g1
sS'EXT'
p1583
g1
sS'EXU'
p1584
g1
sS'EXR'
p1585
g1
sS'EXS'
p1586
S'LS'
p1587
sS'EXP'
p1588
g1
sS'RDL'
p1589
g1
sS'EXZ'
p1590
g1
sS'EXX'
p1591
g1
sS'EXY'
p1592
g1
sS'ELT'
p1593
g1
sS'LED'
p1594
g1
sS'KIZ'
p1595
g1
sS'KIS'
p1596
g1
sS'KIP'
p1597
g1
sS'KIW'
p1598
g1
sS'KIN'
p1599
g1
sS'KIL'
p1600
S'GW'
p1601
sS'KIA'
p1602
S'KP'
p1603
sS'RLV'
p1604
g1
sS'KIE'
p1605
g1
sS'CRR'
p1606
g1
sS'CRS'
p1607
g1
sS'CRP'
p1608
g1
sS'CRQ'
p1609
g1
sS'CRV'
p1610
g1
sS'CRW'
p1611
g1
sS'CRT'
p1612
g1
sS'CRX'
p1613
g1
sS'CRY'
p1614
g1
sS'CRC'
p1615
g1
sS'CRA'
p1616
g1
sS'CRF'
p1617
S'NV'
p1618
sS'CRG'
p1619
S'2G'
p1620
sS'CRD'
p1621
S'QC'
p1622
sS'CRE'
p1623
g1
sS'CRJ'
p1624
g1
sS'CRK'
p1625
S'HX'
p1626
sS'CRH'
p1627
g1
sS'CRN'
p1628
g1
sS'CRO'
p1629
g1
sS'CRL'
p1630
S'SS'
p1631
sS'CRM'
p1632
g1
sS'LER'
p1633
S'QL'
p1634
sS'LEU'
p1635
g1
sS'OPT'
p1636
g1
sS'OPV'
p1637
g1
sS'OPS'
p1638
g1
sS'OPA'
p1639
g1
sS'OPC'
p1640
g1
sS'FMR'
p1641
g1
sS'JLX'
p1642
g1
sS'PSW'
p1643
g1
sS'HNA'
p1644
g1
sS'XAX'
p1645
S'D7'
p1646
sS'CDA'
p1647
g1
sS'XAP'
p1648
g1
sS'XAR'
p1649
g1
sS'XAS'
p1650
g1
sS'XAT'
p1651
g1
sS'XAV'
p1652
g1
sS'XAH'
p1653
g1
sS'XAK'
p1654
g1
sS'XAM'
p1655
g1
sS'XAO'
p1656
g1
sS'XAA'
p1657
g1
sS'XAB'
p1658
g1
sS'XAC'
p1659
g1
sS'XAD'
p1660
g1
sS'XAF'
p1661
g1
sS'TYF'
p1662
g1
sS'HNT'
p1663
g1
sS'CNW'
p1664
S'WH'
p1665
sS'ICN'
p1666
g1
sS'ICE'
p1667
S'FI'
p1668
sS'CNY'
p1669
g1
sS'VOG'
p1670
g1
sS'VOA'
p1671
S'VM'
p1672
sS'VOL'
p1673
g1
sS'VOI'
p1674
S'Y4'
p1675
sS'ICX'
p1676
g1
sS'VOS'
p1677
g1
sS'VOZ'
p1678
S'DJ'
p1679
sS'CNO'
p1680
S'SK'
p1681
sS'CNJ'
p1682
g1
sS'CNK'
p1683
g1
sS'CNI'
p1684
g1
sS'NWL'
p1685
S'HW'
p1686
sS'CIC'
p1687
g1
sS'CIB'
p1688
g1
sS'CIA'
p1689
g1
sS'CIG'
p1690
g1
sS'CIE'
p1691
g1
sS'CID'
p1692
g1
sS'CIK'
p1693
g1
sS'CII'
p1694
g1
sS'CIO'
p1695
g1
sS'CIM'
p1696
S'QI'
p1697
sS'CIL'
p1698
g1
sS'CIR'
p1699
S'5F'
p1700
sS'CIW'
p1701
g1
sS'CIV'
p1702
g1
sS'CIU'
p1703
S'A2'
p1704
sS'PFN'
p1705
g1
sS'DAD'
p1706
g1
sS'DAE'
p1707
g1
sS'DAF'
p1708
g1
sS'DAG'
p1709
S'N2'
p1710
sS'DAA'
p1711
g1
sS'DAB'
p1712
g1
sS'DAC'
p1713
g1
sS'DAL'
p1714
S'DL'
p1715
sS'DAM'
p1716
g1
sS'DAO'
p1717
S'D3'
p1718
sS'DAH'
p1719
S'AH'
p1720
sS'DAU'
p1721
S'D5'
p1722
sS'DAV'
p1723
g1
sS'DAP'
p1724
g1
sS'DAR'
p1725
g1
sS'DAS'
p1726
g1
sS'DAY'
p1727
g1
sS'ULS'
p1728
g1
sS'ULT'
p1729
g1
sS'ULH'
p1730
g1
sS'IJS'
p1731
g1
sS'IJT'
p1732
g1
sS'OOM'
p1733
S'Z4'
p1734
sS'GTX'
p1735
g1
sS'OOT'
p1736
g1
sS'ILV'
p1737
g1
sS'IJE'
p1738
g1
sS'IJM'
p1739
g1
sS'AGO'
p1740
g1
sS'AGN'
p1741
S'GN'
p1742
sS'AGM'
p1743
g1
sS'AGI'
p1744
g1
sS'AGH'
p1745
g1
sS'AGG'
p1746
g1
sS'AGF'
p1747
g1
sS'AGE'
p1748
g1
sS'AGC'
p1749
g1
sS'AGB'
p1750
S'G8'
p1751
sS'AGA'
p1752
g1
sS'NYH'
p1753
g1
sS'AGZ'
p1754
g1
sS'AGY'
p1755
g1
sS'AGX'
p1756
S'JJ'
p1757
sS'AGW'
p1758
g1
sS'AGV'
p1759
S'7T'
p1760
sS'AGU'
p1761
g1
sS'AGT'
p1762
S'1A'
p1763
sS'AGR'
p1764
g1
sS'AGQ'
p1765
g1
sS'AGP'
p1766
g1
sS'BWY'
p1767
g1
sS'BWA'
p1768
S'BW'
p1769
sS'BWG'
p1770
S'QW'
p1771
sS'BWI'
p1772
g1
sS'BWL'
p1773
g1
sS'SNF'
p1774
g1
sS'SNG'
p1775
S'V7'
p1776
sS'SND'
p1777
g1
sS'MAR'
p1778
g1
sS'MAU'
p1779
S'MK'
p1780
sS'SNC'
p1781
S'2Q'
p1782
sS'MAW'
p1783
g1
sS'SNA'
p1784
g1
sS'SNO'
p1785
g1
sS'SNL'
p1786
g1
sS'SNM'
p1787
g1
sS'SNJ'
p1788
S'6J'
p1789
sS'SNK'
p1790
g1
sS'SNH'
p1791
g1
sS'SNI'
p1792
g1
sS'MAA'
p1793
S'M7'
p1794
sS'SNW'
p1795
g1
sS'MAC'
p1796
S'R5'
p1797
sS'MAB'
p1798
g1
sS'MAE'
p1799
g1
sS'MAD'
p1800
g1
sS'SNP'
p1801
g1
sS'MAF'
p1802
g1
sS'MAI'
p1803
g1
sS'MAH'
p1804
S'MA'
p1805
sS'MAK'
p1806
S'IN'
p1807
sS'MAJ'
p1808
g1
sS'MAM'
p1809
g1
sS'MAL'
p1810
g1
sS'SNX'
p1811
g1
sS'SNY'
p1812
g1
sS'EVM'
p1813
g1
sS'EVN'
p1814
g1
sS'EVA'
p1815
S'BR'
p1816
sS'EVE'
p1817
g1
sS'EVY'
p1818
g1
sS'EVR'
p1819
g1
sS'LSE'
p1820
g1
sS'LSC'
p1821
g1
sS'LSA'
p1822
g1
sS'LSM'
p1823
g1
sS'LSK'
p1824
g1
sS'LSU'
p1825
g1
sS'LSR'
p1826
g1
sS'LSS'
p1827
g1
sS'LSP'
p1828
g1
sS'LSY'
p1829
g1
sS'KKS'
p1830
g1
sS'TDV'
p1831
g1
sS'KKK'
p1832
S'KK'
p1833
sS'NMI'
p1834
S'LW'
p1835
sS'KKA'
p1836
g1
sS'KKB'
p1837
g1
sS'CTT'
p1838
g1
sS'CTV'
p1839
g1
sS'CTW'
p1840
g1
sS'CTP'
p1841
g1
sS'CTQ'
p1842
g1
sS'CTR'
p1843
g1
sS'CTS'
p1844
g1
sS'CTY'
p1845
g1
sS'CTZ'
p1846
g1
sS'CTD'
p1847
g1
sS'CTE'
p1848
g1
sS'CTG'
p1849
g1
sS'CTA'
p1850
g1
sS'CTL'
p1851
g1
sS'CTM'
p1852
g1
sS'CTN'
p1853
S'OU'
p1854
sS'CTO'
p1855
g1
sS'CTH'
p1856
g1
sS'CTK'
p1857
g1
sS'ORZ'
p1858
g1
sS'ORX'
p1859
g1
sS'ORR'
p1860
g1
sS'ORS'
p1861
g1
sS'ORP'
p1862
g1
sS'ORN'
p1863
g1
sS'ORO'
p1864
g1
sS'ORL'
p1865
g1
sS'ORM'
p1866
g1
sS'ORJ'
p1867
g1
sS'ORK'
p1868
g1
sS'ORF'
p1869
g1
sS'LOV'
p1870
g1
sS'ORD'
p1871
g1
sS'ORE'
p1872
g1
sS'ORB'
p1873
S'R2'
p1874
sS'ORA'
p1875
g1
sS'MJB'
p1876
g1
sS'MJT'
p1877
g1
sS'GIA'
p1878
S'GA'
p1879
sS'GIL'
p1880
g1
sS'NPL'
p1881
g1
sS'RAT'
p1882
g1
sS'AHL'
p1883
g1
sS'NPX'
p1884
g1
sS'XCC'
p1885
g1
sS'XCO'
p1886
g1
sS'XCL'
p1887
g1
sS'XCS'
p1888
g1
sS'XCT'
p1889
g1
sS'XCX'
p1890
g1
sS'SNQ'
p1891
g1
sS'WYT'
p1892
g1
sS'GUA'
p1893
g1
sS'WYG'
p1894
g1
sS'WYC'
p1895
g1
sS'GUG'
p1896
g1
sS'GUF'
p1897
g1
sS'TSH'
p1898
g1
sS'GUJ'
p1899
S'G8'
p1900
sS'GUN'
p1901
S'GS'
p1902
sS'EBG'
p1903
g1
sS'GUL'
p1904
g1
sS'TUX'
p1905
g1
sS'TUY'
p1906
S'LD'
p1907
sS'TUZ'
p1908
g1
sS'VMM'
p1909
g1
sS'TUP'
p1910
g1
sS'TUR'
p1911
g1
sS'TUS'
p1912
S'M3'
p1913
sS'VMA'
p1914
g1
sS'TUI'
p1915
S'UG'
p1916
sS'TUK'
p1917
g1
sS'TUL'
p1918
g1
sS'TUM'
p1919
g1
sS'TUN'
p1920
g1
sS'TUO'
p1921
g1
sS'TUA'
p1922
g1
sS'TUC'
p1923
g1
sS'VMR'
p1924
g1
sS'VMP'
p1925
g1
sS'TST'
p1926
g1
sS'FYA'
p1927
g1
sS'LNI'
p1928
S'JT'
p1929
sS'FYG'
p1930
g1
sS'FYE'
p1931
g1
sS'FYH'
p1932
S'W3'
p1933
sS'FYN'
p1934
g1
sS'FYS'
p1935
g1
sS'QSC'
p1936
S'QS'
p1937
sS'CKE'
p1938
g1
sS'PAQ'
p1939
g1
sS'PAR'
p1940
g1
sS'PAS'
p1941
g1
sS'CKA'
p1942
g1
sS'CKC'
p1943
g1
sS'PAW'
p1944
g1
sS'CKM'
p1945
g1
sS'CKL'
p1946
g1
sS'PAZ'
p1947
g1
sS'CKK'
p1948
S'CK'
p1949
sS'PAA'
p1950
S'PA'
p1951
sS'PAB'
p1952
g1
sS'PAC'
p1953
S'PO'
p1954
sS'PAD'
p1955
g1
sS'PAE'
p1956
g1
sS'CKS'
p1957
S'K4'
p1958
sS'CKR'
p1959
g1
sS'PAH'
p1960
g1
sS'PAI'
p1961
g1
sS'PAJ'
p1962
g1
sS'PAK'
p1963
g1
sS'PAL'
p1964
S'PR'
p1965
sS'PAM'
p1966
g1
sS'PAO'
p1967
S'PH'
p1968
sS'DCN'
p1969
g1
sS'DCO'
p1970
g1
sS'DCL'
p1971
g1
sS'DCM'
p1972
g1
sS'DCE'
p1973
g1
sS'DCC'
p1974
g1
sS'DCA'
p1975
g1
sS'DCX'
p1976
g1
sS'DCV'
p1977
g1
sS'DCT'
p1978
g1
sS'DCS'
p1979
g1
sS'UJT'
p1980
g1
sS'UJR'
p1981
g1
sS'ITK'
p1982
S'ID'
p1983
sS'IHS'
p1984
g1
sS'OIC'
p1985
g1
sS'OIX'
p1986
g1
sS'IHE'
p1987
g1
sS'AEQ'
p1988
g1
sS'AEP'
p1989
g1
sS'AES'
p1990
g1
sS'GBE'
p1991
g1
sS'AEU'
p1992
S'5W'
p1993
sS'AET'
p1994
g1
sS'AEW'
p1995
S'VV'
p1996
sS'GBA'
p1997
S'GF'
p1998
sS'GBN'
p1999
g1
sS'GBO'
p2000
g1
sS'GBL'
p2001
S'GT'
p2002
sS'AEZ'
p2003
g1
sS'GBJ'
p2004
g1
sS'AEA'
p2005
S'UX'
p2006
sS'AEC'
p2007
g1
sS'AEB'
p2008
S'EM'
p2009
sS'GBR'
p2010
g1
sS'AED'
p2011
g1
sS'AEG'
p2012
g1
sS'AEF'
p2013
g1
sS'AEI'
p2014
g1
sS'AEH'
p2015
S'RX'
p2016
sS'AEK'
p2017
g1
sS'AEJ'
p2018
g1
sS'AEM'
p2019
g1
sS'AEL'
p2020
S'PE'
p2021
sS'AEO'
p2022
g1
sS'AEN'
p2023
S'3S'
p2024
sS'BUZ'
p2025
g1
sS'BUN'
p2026
g1
sS'BUL'
p2027
g1
sS'BUB'
p2028
S'ZB'
p2029
sS'BUC'
p2030
g1
sS'BUG'
p2031
g1
sS'BUE'
p2032
g1
sS'GAV'
p2033
g1
sS'MOS'
p2034
g1
sS'MOR'
p2035
g1
sS'MOP'
p2036
g1
sS'MOW'
p2037
g1
sS'MOV'
p2038
S'NN'
p2039
sS'MOH'
p2040
g1
sS'MON'
p2041
S'ZB'
p2042
sS'MOC'
p2043
g1
sS'KMG'
p2044
g1
sS'ETS'
p2045
g1
sS'ETP'
p2046
g1
sS'ETV'
p2047
g1
sS'KMB'
p2048
g1
sS'KMA'
p2049
g1
sS'ECM'
p2050
g1
sS'KMI'
p2051
g1
sS'ETC'
p2052
g1
sS'ETA'
p2053
g1
sS'KMR'
p2054
g1
sS'ETD'
p2055
S'EY'
p2056
sS'ETE'
p2057
g1
sS'ETH'
p2058
S'ET'
p2059
sS'ETN'
p2060
g1
sS'ETL'
p2061
g1
sS'ETM'
p2062
g1
sS'AAH'
p2063
S'AQ'
p2064
sS'QNT'
p2065
g1
sS'QNZ'
p2066
g1
sS'QNA'
p2067
g1
sS'QNK'
p2068
S'N2'
p2069
sS'CVV'
p2070
g1
sS'CVT'
p2071
g1
sS'CVU'
p2072
g1
sS'CVR'
p2073
g1
sS'CVO'
p2074
g1
sS'CVL'
p2075
g1
sS'MIS'
p2076
g1
sS'CVF'
p2077
g1
sS'CVG'
p2078
g1
sS'CVE'
p2079
g1
sS'CVC'
p2080
S'J7'
p2081
sS'CVA'
p2082
S'CV'
p2083
sS'AAZ'
p2084
S'KJ'
p2085
sS'GAL'
p2086
S'7O'
p2087
sS'WDA'
p2088
g1
sS'BIE'
p2089
S'DR'
p2090
sS'WDG'
p2091
g1
sS'WDK'
p2092
g1
sS'WDL'
p2093
S'W1'
p2094
sS'WDR'
p2095
g1
sS'WDS'
p2096
g1
sS'WDY'
p2097
g1
sS'LFE'
p2098
g1
sS'LFA'
p2099
g1
sS'LFC'
p2100
g1
sS'LFT'
p2101
g1
sS'LFP'
p2102
g1
sS'ECY'
p2103
g1
sS'XEC'
p2104
g1
sS'XEL'
p2105
g1
sS'XER'
p2106
g1
sS'GFS'
p2107
g1
sS'TWA'
p2108
S'TW'
p2109
sS'TWF'
p2110
g1
sS'TWG'
p2111
S'TZ'
p2112
sS'TWE'
p2113
g1
sS'TWJ'
p2114
g1
sS'TWN'
p2115
S'EC'
p2116
sS'TWO'
p2117
g1
sS'TWL'
p2118
g1
sS'TWM'
p2119
g1
sS'TWW'
p2120
g1
sS'HQO'
p2121
g1
sS'TWY'
p2122
g1
sS'PTM'
p2123
g1
sS'GFC'
p2124
g1
sS'VSP'
p2125
S'VP'
p2126
sS'VSR'
p2127
g1
sS'MCT'
p2128
g1
sS'VSV'
p2129
g1
sS'GFF'
p2130
g1
sS'VSA'
p2131
g1
sS'VSB'
p2132
g1
sS'VSC'
p2133
g1
sS'VSG'
p2134
g1
sS'VSN'
p2135
g1
sS'VSO'
p2136
g1
sS'RYN'
p2137
S'RD'
p2138
sS'EOA'
p2139
g1
sS'RYB'
p2140
g1
sS'EOM'
p2141
g1
sS'RYA'
p2142
g1
sS'RYZ'
p2143
g1
sS'PTA'
p2144
g1
sS'RYT'
p2145
g1
sS'RYR'
p2146
S'FR'
p2147
sS'RYS'
p2148
g1
sS'PTV'
p2149
g1
sS'EXW'
p2150
g1
sS'JMG'
p2151
g1
sS'CMN'
p2152
g1
sS'CMM'
p2153
g1
sS'CML'
p2154
g1
sS'CMK'
p2155
g1
sS'CMJ'
p2156
g1
sS'CMI'
p2157
S'CS'
p2158
sS'CMH'
p2159
g1
sS'CMG'
p2160
g1
sS'PCS'
p2161
g1
sS'PCP'
p2162
g1
sS'PCV'
p2163
g1
sS'PCW'
p2164
g1
sS'CMA'
p2165
g1
sS'PCJ'
p2166
g1
sS'PCK'
p2167
g1
sS'PCH'
p2168
g1
sS'PCN'
p2169
g1
sS'CMZ'
p2170
g1
sS'CMY'
p2171
g1
sS'CMX'
p2172
g1
sS'PCC'
p2173
g1
sS'CMU'
p2174
g1
sS'CMT'
p2175
g1
sS'CMS'
p2176
g1
sS'PCG'
p2177
g1
sS'CMP'
p2178
S'CM'
p2179
sS'OKP'
p2180
g1
sS'OKS'
p2181
S'S0'
p2182
sS'INX'
p2183
g1
sS'OKT'
p2184
g1
sS'INT'
p2185
g1
sS'INU'
p2186
g1
sS'INV'
p2187
g1
sS'INP'
p2188
g1
sS'INS'
p2189
g1
sS'INL'
p2190
g1
sS'INO'
p2191
g1
sS'UHS'
p2192
g1
sS'INK'
p2193
g1
sS'IND'
p2194
g1
sS'ING'
p2195
g1
sS'INA'
p2196
g1
sS'INC'
p2197
g1
sS'AKZ'
p2198
g1
sS'AKY'
p2199
g1
sS'AKX'
p2200
S'EH'
p2201
sS'GLL'
p2202
g1
sS'GLM'
p2203
g1
sS'GLO'
p2204
S'G3'
p2205
sS'AKR'
p2206
g1
sS'GLB'
p2207
g1
sS'GLC'
p2208
g1
sS'AKW'
p2209
g1
sS'GLE'
p2210
g1
sS'GLF'
p2211
g1
sS'GLG'
p2212
S'2K'
p2213
sS'AKK'
p2214
g1
sS'AKI'
p2215
g1
sS'AKH'
p2216
g1
sS'AKN'
p2217
g1
sS'AKM'
p2218
g1
sS'AKL'
p2219
S'4A'
p2220
sS'AKC'
p2221
g1
sS'AKB'
p2222
g1
sS'AKA'
p2223
g1
sS'GLS'
p2224
g1
sS'AKG'
p2225
g1
sS'AKF'
p2226
g1
sS'GLW'
p2227
g1
sS'BSY'
p2228
S'GQ'
p2229
sS'BST'
p2230
g1
sS'BSW'
p2231
g1
sS'BSP'
p2232
g1
sS'BSR'
p2233
S'G6'
p2234
sS'BSS'
p2235
g1
sS'BSM'
p2236
g1
sS'BSN'
p2237
g1
sS'BSO'
p2238
g1
sS'BSI'
p2239
g1
sS'BSJ'
p2240
g1
sS'BSK'
p2241
S'GL'
p2242
sS'BSD'
p2243
g1
sS'IBB'
p2244
S'NT'
p2245
sS'BSB'
p2246
g1
sS'BSC'
p2247
g1
sS'GGS'
p2248
g1
sS'CAV'
p2249
S'MO'
p2250
sS'MPC'
p2251
g1
sS'SBR'
p2252
g1
sS'SBS'
p2253
S'BB'
p2254
sS'SBQ'
p2255
g1
sS'MMX'
p2256
g1
sS'SBT'
p2257
g1
sS'MMZ'
p2258
S'MM'
p2259
sS'SBZ'
p2260
g1
sS'SBX'
p2261
g1
sS'MMP'
p2262
g1
sS'MMS'
p2263
g1
sS'MMR'
p2264
g1
sS'MMM'
p2265
S'8M'
p2266
sS'SBC'
p2267
g1
sS'SBA'
p2268
g1
sS'SBF'
p2269
g1
sS'SBG'
p2270
g1
sS'MPO'
p2271
g1
sS'SBJ'
p2272
g1
sS'SBK'
p2273
S'RB'
p2274
sS'SBH'
p2275
g1
sS'SBI'
p2276
S'S7'
p2277
sS'MPL'
p2278
g1
sS'SBL'
p2279
g1
sS'SBM'
p2280
g1
sS'ERT'
p2281
S'B8'
p2282
sS'KOK'
p2283
g1
sS'KOM'
p2284
g1
sS'KOA'
p2285
g1
sS'MPJ'
p2286
S'AQ'
p2287
sS'KOB'
p2288
g1
sS'ERX'
p2289
g1
sS'KOY'
p2290
g1
sS'ERE'
p2291
g1
sS'ERF'
p2292
g1
sS'ERG'
p2293
g1
sS'MPH'
p2294
S'MP'
p2295
sS'ERC'
p2296
g1
sS'ERM'
p2297
g1
sS'KOS'
p2298
g1
sS'ERO'
p2299
S'7L'
p2300
sS'ERH'
p2301
g1
sS'ERI'
p2302
g1
sS'ERJ'
p2303
g1
sS'ERK'
p2304
g1
sS'CAG'
p2305
g1
sS'MPT'
p2306
g1
sS'MPR'
p2307
g1
sS'AVB'
p2308
g1
sS'QLA'
p2309
g1
sS'DYN'
p2310
g1
sS'GGZ'
p2311
g1
sS'WFO'
p2312
g1
sS'WFC'
p2313
g1
sS'WFD'
p2314
g1
sS'NBR'
p2315
g1
sS'TEX'
p2316
g1
sS'YWZ'
p2317
S'8O'
p2318
sS'OGN'
p2319
S'QO'
p2320
sS'XGG'
p2321
g1
sS'XGA'
p2322
g1
sS'XGW'
p2323
g1
sS'XGS'
p2324
g1
sS'TQF'
p2325
g1
sS'TQM'
p2326
g1
sS'TQN'
p2327
g1
sS'TQR'
p2328
g1
sS'TQS'
p2329
g1
sS'GHP'
p2330
g1
sS'HSA'
p2331
S'S9'
p2332
sS'HSE'
p2333
g1
sS'HSK'
p2334
g1
sS'HSI'
p2335
g1
sS'HSO'
p2336
g1
sS'HSM'
p2337
g1
sS'HSR'
p2338
g1
sS'HSS'
p2339
g1
sS'HSP'
p2340
g1
sS'HSV'
p2341
g1
sS'HSU'
p2342
g1
sS'HSY'
p2343
g1
sS'MID'
p2344
g1
sS'MIF'
p2345
g1
sS'SYC'
p2346
g1
sS'SYA'
p2347
g1
sS'SYG'
p2348
g1
sS'SYF'
p2349
g1
sS'SYE'
p2350
g1
sS'SYK'
p2351
g1
sS'SYJ'
p2352
g1
sS'SYI'
p2353
g1
sS'SYN'
p2354
g1
sS'SYL'
p2355
S'R3'
p2356
sS'SYS'
p2357
g1
sS'SYR'
p2358
S'RB'
p2359
sS'SYV'
p2360
g1
sS'SYT'
p2361
g1
sS'SYY'
p2362
g1
sS'SYX'
p2363
S'AL'
p2364
sS'EME'
p2365
g1
sS'EMD'
p2366
g1
sS'RGR'
p2367
g1
sS'RGS'
p2368
g1
sS'EMA'
p2369
g1
sS'EMB'
p2370
g1
sS'RGY'
p2371
g1
sS'EMN'
p2372
g1
sS'EMI'
p2373
g1
sS'EMU'
p2374
g1
sS'EMT'
p2375
g1
sS'RGC'
p2376
g1
sS'EMP'
p2377
g1
sS'EMS'
p2378
g1
sS'EMR'
p2379
g1
sS'RGL'
p2380
S'FN'
p2381
sS'RGM'
p2382
g1
sS'RGN'
p2383
g1
sS'RGO'
p2384
g1
sS'LDA'
p2385
S'NG'
p2386
sS'LDG'
p2387
g1
sS'LDE'
p2388
g1
sS'LDI'
p2389
g1
sS'LDN'
p2390
g1
sS'LDL'
p2391
g1
sS'LDR'
p2392
g1
sS'QWL'
p2393
g1
sS'QWA'
p2394
g1
sS'ILF'
p2395
g1
sS'COP'
p2396
g1
sS'PEX'
p2397
g1
sS'ILC'
p2398
g1
sS'COW'
p2399
g1
sS'COV'
p2400
g1
sS'PET'
p2401
g1
sS'ILL'
p2402
g1
sS'COZ'
p2403
S'F5'
p2404
sS'ILK'
p2405
g1
sS'PER'
p2406
g1
sS'PEL'
p2407
S'OT'
p2408
sS'PEM'
p2409
g1
sS'PEN'
p2410
S'KS'
p2411
sS'PEO'
p2412
g1
sS'COD'
p2413
g1
sS'ILP'
p2414
g1
sS'COF'
p2415
g1
sS'COI'
p2416
g1
sS'COH'
p2417
g1
sS'COM'
p2418
S'OH'
p2419
sS'COL'
p2420
g1
sS'PEB'
p2421
g1
sS'CON'
p2422
g1
sS'UFA'
p2423
g1
sS'OEC'
p2424
g1
sS'OEA'
p2425
S'OX'
p2426
sS'UFS'
p2427
S'U2'
p2428
sS'OED'
p2429
g1
sS'GNR'
p2430
S'GC'
p2431
sS'GNS'
p2432
g1
sS'AIY'
p2433
g1
sS'AIX'
p2434
g1
sS'GNT'
p2435
S'0A'
p2436
sS'AIZ'
p2437
S'IZ'
p2438
sS'MKO'
p2439
g1
sS'AIT'
p2440
g1
sS'AIW'
p2441
g1
sS'AIV'
p2442
g1
sS'MKK'
p2443
g1
sS'AIP'
p2444
S'5A'
p2445
sS'AIS'
p2446
g1
sS'AIR'
p2447
g1
sS'AIM'
p2448
g1
sS'AIL'
p2449
g1
sS'AIO'
p2450
g1
sS'AIN'
p2451
g1
sS'AII'
p2452
g1
sS'AIH'
p2453
g1
sS'AIK'
p2454
g1
sS'AIJ'
p2455
g1
sS'AIE'
p2456
g1
sS'AIG'
p2457
g1
sS'AIF'
p2458
g1
sS'AIA'
p2459
S'U3'
p2460
sS'AIC'
p2461
S'AI'
p2462
sS'AIB'
p2463
S'AP'
p2464
sS'NSK'
p2465
g1
sS'NSL'
p2466
g1
sS'NSM'
p2467
g1
sS'NSO'
p2468
g1
sS'NSA'
p2469
g1
sS'NSC'
p2470
g1
sS'NSE'
p2471
g1
sS'NSF'
p2472
g1
sS'NSP'
p2473
g1
sS'NSR'
p2474
g1
sS'NSS'
p2475
g1
sS'NSW'
p2476
g1
sS'RKT'
p2477
g1
sS'SDU'
p2478
g1
sS'SDV'
p2479
g1
sS'SDP'
p2480
g1
sS'SDR'
p2481
S'CF'
p2482
sS'SDS'
p2483
g1
sS'SDX'
p2484
g1
sS'SDY'
p2485
S'2S'
p2486
sS'SDZ'
p2487
g1
sS'SDD'
p2488
g1
sS'SDF'
p2489
g1
sS'SDA'
p2490
g1
sS'SDB'
p2491
g1
sS'SDC'
p2492
g1
sS'SDL'
p2493
g1
sS'SDM'
p2494
S'FV'
p2495
sS'SDN'
p2496
g1
sS'SDO'
p2497
S'EX'
p2498
sS'SDH'
p2499
g1
sS'SDJ'
p2500
g1
sS'SDK'
p2501
g1
sS'EPU'
p2502
g1
sS'EPL'
p2503
g1
sS'EPE'
p2504
g1
sS'EPB'
p2505
g1
sS'EPC'
p2506
g1
sS'LYT'
p2507
g1
sS'LYW'
p2508
g1
sS'LYX'
p2509
g1
sS'LYD'
p2510
g1
sS'LYF'
p2511
g1
sS'LYC'
p2512
S'L2'
p2513
sS'LYM'
p2514
g1
sS'LYN'
p2515
S'QH'
p2516
sS'EAP'
p2517
g1
sS'IKR'
p2518
g1
sS'OLR'
p2519
g1
sS'IKK'
p2520
g1
sS'GEA'
p2521
g1
sS'RFA'
p2522
g1
sS'JWY'
p2523
g1
sS'XYZ'
p2524
g1
sS'TSN'
p2525
g1
sS'TSO'
p2526
S'UN'
p2527
sS'TSL'
p2528
g1
sS'TSM'
p2529
g1
sS'TSJ'
p2530
S'S5'
p2531
sS'TSK'
p2532
g1
sS'GUE'
p2533
g1
sS'TSI'
p2534
g1
sS'TSG'
p2535
g1
sS'TSD'
p2536
g1
sS'TSE'
p2537
S'TH'
p2538
sS'TSC'
p2539
S'TS'
p2540
sS'GUM'
p2541
g1
sS'TSA'
p2542
g1
sS'GUS'
p2543
g1
sS'TSX'
p2544
S'T9'
p2545
sS'TSY'
p2546
g1
sS'TSV'
p2547
g1
sS'TSW'
p2548
g1
sS'GUY'
p2549
S'GG'
p2550
sS'TSU'
p2551
g1
sS'TSR'
p2552
g1
sS'TSS'
p2553
g1
sS'TSP'
p2554
g1
sS'TSQ'
p2555
g1
sS'HUD'
p2556
g1
sS'HUF'
p2557
g1
sS'HUB'
p2558
g1
sS'HUC'
p2559
g1
sS'HUT'
p2560
g1
sS'HUV'
p2561
g1
sS'HUR'
p2562
g1
sS'HUS'
p2563
g1
sS'HUY'
p2564
g1
sS'REZ'
p2565
g1
sS'REX'
p2566
g1
sS'REY'
p2567
g1
sS'RER'
p2568
g1
sS'RES'
p2569
g1
sS'EKC'
p2570
g1
sS'REW'
p2571
g1
sS'EKA'
p2572
g1
sS'REU'
p2573
S'UU'
p2574
sS'REJ'
p2575
g1
sS'REK'
p2576
S'V4'
p2577
sS'REI'
p2578
g1
sS'REN'
p2579
g1
sS'REO'
p2580
g1
sS'REL'
p2581
g1
sS'REB'
p2582
g1
sS'REC'
p2583
g1
sS'REA'
p2584
S'RE'
p2585
sS'REF'
p2586
g1
sS'REG'
p2587
g1
sS'RED'
p2588
g1
sS'FCP'
p2589
g1
sS'FCR'
p2590
g1
sS'FCS'
p2591
g1
sS'FCT'
p2592
g1
sS'FCU'
p2593
g1
sS'FCV'
p2594
g1
sS'LFL'
p2595
g1
sS'LFO'
p2596
g1
sS'LFI'
p2597
g1
sS'FCA'
p2598
S'DP'
p2599
sS'FCC'
p2600
g1
sS'FCE'
p2601
g1
sS'LFR'
p2602
g1
sS'FCI'
p2603
g1
sS'FCK'
p2604
g1
sS'FCL'
p2605
S'PA'
p2606
sS'FCN'
p2607
g1
sS'FCO'
p2608
g1
sS'QUE'
p2609
g1
sS'QUI'
p2610
g1
sS'CAZ'
p2611
g1
sS'CAY'
p2612
S'KX'
p2613
sS'CAX'
p2614
g1
sS'IBL'
p2615
S'0C'
p2616
sS'CAS'
p2617
g1
sS'CAR'
p2618
g1
sS'CAQ'
p2619
g1
sS'CAP'
p2620
g1
sS'CAW'
p2621
S'MN'
p2622
sS'IBE'
p2623
S'IB'
p2624
sS'CAT'
p2625
g1
sS'IBX'
p2626
S'FW'
p2627
sS'IBY'
p2628
g1
sS'IBZ'
p2629
S'6I'
p2630
sS'CAH'
p2631
g1
sS'CAO'
p2632
g1
sS'CAN'
p2633
g1
sS'CAM'
p2634
S'R9'
p2635
sS'CAL'
p2636
S'CI'
p2637
sS'CAC'
p2638
g1
sS'CAB'
p2639
g1
sS'CAA'
p2640
g1
sS'IBT'
p2641
g1
sS'IBU'
p2642
S'I9'
p2643
sS'CAE'
p2644
g1
sS'CAD'
p2645
g1
sS'PGF'
p2646
g1
sS'PGA'
p2647
S'NI'
p2648
sS'PGL'
p2649
g1
sS'PGH'
p2650
g1
sS'PGI'
p2651
g1
sS'PGT'
p2652
S'H9'
p2653
sS'PGS'
p2654
g1
sS'PGP'
p2655
S'P9'
p2656
sS'DYE'
p2657
g1
sS'PGX'
p2658
g1
sS'MBN'
p2659
S'Q3'
p2660
sS'HJL'
p2661
g1
sS'MBO'
p2662
g1
sS'SOD'
p2663
g1
sS'HGH'
p2664
g1
sS'UDC'
p2665
S'5D'
p2666
sS'UDA'
p2667
g1
sS'OGI'
p2668
g1
sS'MKY'
p2669
g1
sS'OGJ'
p2670
g1
sS'LHS'
p2671
g1
sS'UDN'
p2672
g1
sS'GHT'
p2673
g1
sS'GHV'
p2674
g1
sS'MIM'
p2675
g1
sS'GHS'
p2676
g1
sS'MIA'
p2677
g1
sS'GAS'
p2678
g1
sS'MIC'
p2679
g1
sS'MIE'
p2680
g1
sS'GHY'
p2681
g1
sS'MIG'
p2682
g1
sS'SOL'
p2683
S'IE'
p2684
sS'MIZ'
p2685
g1
sS'GHA'
p2686
S'GH'
p2687
sS'GHB'
p2688
S'G0'
p2689
sS'GHL'
p2690
g1
sS'GHM'
p2691
g1
sS'GHN'
p2692
g1
sS'MIR'
p2693
g1
sS'MIT'
p2694
g1
sS'AOG'
p2695
S'2D'
p2696
sS'AOF'
p2697
g1
sS'AOE'
p2698
g1
sS'AOD'
p2699
g1
sS'AOC'
p2700
S'J6'
p2701
sS'AOB'
p2702
g1
sS'AOA'
p2703
g1
sS'GAN'
p2704
g1
sS'AOO'
p2705
g1
sS'AON'
p2706
g1
sS'AOM'
p2707
S'IW'
p2708
sS'AOL'
p2709
g1
sS'AOK'
p2710
g1
sS'AOI'
p2711
g1
sS'AOV'
p2712
g1
sS'AOU'
p2713
g1
sS'AOT'
p2714
S'OE'
p2715
sS'AOS'
p2716
g1
sS'AOR'
p2717
g1
sS'AOP'
p2718
g1
sS'GAK'
p2719
g1
sS'AOX'
p2720
g1
sS'GAI'
p2721
S'3R'
p2722
sS'GAH'
p2723
g1
sS'GAG'
p2724
g1
sS'GAF'
p2725
g1
sS'GAE'
p2726
g1
sS'SOZ'
p2727
S'HZ'
p2728
sS'SFX'
p2729
g1
sS'SFY'
p2730
g1
sS'SFT'
p2731
g1
sS'SFU'
p2732
g1
sS'SFR'
p2733
S'FA'
p2734
sS'SFS'
p2735
g1
sS'SFP'
p2736
g1
sS'SFN'
p2737
g1
sS'SFL'
p2738
g1
sS'SFM'
p2739
g1
sS'SFJ'
p2740
S'7G'
p2741
sS'GAA'
p2742
g1
sS'SFF'
p2743
g1
sS'SFG'
p2744
g1
sS'SFE'
p2745
g1
sS'SFB'
p2746
g1
sS'SFC'
p2747
g1
sS'SFA'
p2748
g1
sS'KSU'
p2749
g1
sS'KST'
p2750
g1
sS'KSP'
p2751
g1
sS'KSS'
p2752
g1
sS'KSA'
p2753
g1
sS'KSM'
p2754
g1
sS'KSI'
p2755
g1
sS'GCN'
p2756
g1
sS'TLS'
p2757
g1
sS'WBR'
p2758
g1
sS'TLP'
p2759
S'TD'
p2760
sS'WBA'
p2761
S'FC'
p2762
sS'VTE'
p2763
g1
sS'TLU'
p2764
g1
sS'VTH'
p2765
g1
sS'TLY'
p2766
g1
sS'TLC'
p2767
g1
sS'GTR'
p2768
g1
sS'VTT'
p2769
g1
sS'GTV'
p2770
g1
sS'TLD'
p2771
g1
sS'VTY'
p2772
g1
sS'VTX'
p2773
g1
sS'ZAN'
p2774
g1
sS'ZAK'
p2775
S'K8'
p2776
sS'ZAI'
p2777
g1
sS'ZAW'
p2778
g1
sS'ZAR'
p2779
g1
sS'ZAS'
p2780
g1
sS'JUB'
p2781
g1
sS'JUC'
p2782
g1
sS'JUA'
p2783
g1
sS'JUR'
p2784
g1
sS'JUS'
p2785
S'U7'
p2786
sS'TMP'
p2787
g1
sS'TMQ'
p2788
g1
sS'TMR'
p2789
g1
sS'VUE'
p2790
g1
sS'TMT'
p2791
g1
sS'VUN'
p2792
S'VU'
p2793
sS'TMY'
p2794
g1
sS'TMZ'
p2795
g1
sS'GWN'
p2796
g1
sS'GWI'
p2797
S'4U'
p2798
sS'TMA'
p2799
S'TL'
p2800
sS'TMD'
p2801
g1
sS'VUS'
p2802
g1
sS'GWS'
p2803
g1
sS'TMG'
p2804
S'GY'
p2805
sS'TMH'
p2806
g1
sS'TMI'
p2807
g1
sS'TMK'
p2808
g1
sS'GWY'
p2809
S'U5'
p2810
sS'TMM'
p2811
g1
sS'NJC'
p2812
g1
sS'HWD'
p2813
g1
sS'NJS'
p2814
S'NC'
p2815
sS'HWY'
p2816
g1
sS'EIS'
p2817
g1
sS'EIR'
p2818
g1
sS'RCX'
p2819
g1
sS'RCY'
p2820
g1
sS'RCT'
p2821
S'7S'
p2822
sS'EIX'
p2823
g1
sS'RCP'
p2824
g1
sS'RCQ'
p2825
g1
sS'EIA'
p2826
S'EZ'
p2827
sS'EIC'
p2828
g1
sS'RCO'
p2829
g1
sS'RCH'
p2830
S'MC'
p2831
sS'RCI'
p2832
g1
sS'RCJ'
p2833
g1
sS'RCK'
p2834
S'F6'
p2835
sS'RCD'
p2836
g1
sS'RCE'
p2837
g1
sS'RCF'
p2838
g1
sS'EIJ'
p2839
g1
sS'RCA'
p2840
g1
sS'RCB'
p2841
g1
sS'EIN'
p2842
S'EI'
p2843
sS'FAZ'
p2844
g1
sS'FAX'
p2845
g1
sS'FAY'
p2846
g1
sS'FAR'
p2847
g1
sS'FAS'
p2848
g1
sS'FAP'
p2849
g1
sS'FAQ'
p2850
g1
sS'FAV'
p2851
g1
sS'FAW'
p2852
g1
sS'FAT'
p2853
g1
sS'FAU'
p2854
g1
sS'FAJ'
p2855
S'PC'
p2856
sS'FAK'
p2857
g1
sS'FAH'
p2858
g1
sS'FAN'
p2859
g1
sS'FAO'
p2860
g1
sS'FAL'
p2861
g1
sS'FAM'
p2862
g1
sS'FAB'
p2863
S'7F'
p2864
sS'FAC'
p2865
g1
sS'FAF'
p2866
g1
sS'FAG'
p2867
g1
sS'FAD'
p2868
g1
sS'FAE'
p2869
g1
sS'OAE'
p2870
S'OY'
p2871
sS'OAD'
p2872
g1
sS'OAC'
p2873
g1
sS'CCX'
p2874
g1
sS'OAA'
p2875
g1
sS'OAO'
p2876
g1
sS'CCW'
p2877
g1
sS'OAL'
p2878
S'OA'
p2879
sS'CCQ'
p2880
g1
sS'CCP'
p2881
S'MG'
p2882
sS'OAW'
p2883
S'2L'
p2884
sS'OAV'
p2885
g1
sS'CCI'
p2886
S'PT'
p2887
sS'CCH'
p2888
g1
sS'CCK'
p2889
g1
sS'OAP'
p2890
g1
sS'CCE'
p2891
g1
sS'CCG'
p2892
S'3B'
p2893
sS'CCF'
p2894
g1
sS'CCA'
p2895
S'CA'
p2896
sS'OAX'
p2897
g1
sS'PIK'
p2898
g1
sS'PIL'
p2899
g1
sS'PIM'
p2900
g1
sS'PIN'
p2901
g1
sS'PIO'
p2902
g1
sS'PIA'
p2903
S'PK'
p2904
sS'PIC'
p2905
S'BL'
p2906
sS'PIE'
p2907
g1
sS'PIF'
p2908
g1
sS'PIX'
p2909
g1
sS'PIR'
p2910
S'NR'
p2911
sS'PIU'
p2912
g1
sS'PIV'
p2913
g1
sS'BVT'
p2914
S'J8'
p2915
sS'UBA'
p2916
S'UB'
p2917
sS'MWS'
p2918
g1
sS'MWR'
p2919
g1
sS'MWT'
p2920
g1
sS'MWY'
p2921
g1
sS'GJS'
p2922
S'G7'
p2923
sS'MWA'
p2924
S'MY'
p2925
sS'MWG'
p2926
S'MH'
p2927
sS'GJB'
p2928
g1
sS'GJA'
p2929
g1
sS'AMI'
p2930
g1
sS'AMH'
p2931
g1
sS'AMK'
p2932
g1
sS'NWW'
p2933
g1
sS'AMM'
p2934
g1
sS'AML'
p2935
S'QM'
p2936
sS'NWR'
p2937
S'FY'
p2938
sS'AMN'
p2939
g1
sS'AMA'
p2940
g1
sS'AMC'
p2941
S'KM'
p2942
sS'AMB'
p2943
S'1I'
p2944
sS'AME'
p2945
g1
sS'AMD'
p2946
g1
sS'NWZ'
p2947
g1
sS'AMF'
p2948
g1
sS'NWD'
p2949
g1
sS'NWE'
p2950
g1
sS'AMZ'
p2951
g1
sS'NWA'
p2952
S'NW'
p2953
sS'AMQ'
p2954
g1
sS'AMP'
p2955
g1
sS'AMS'
p2956
g1
sS'NWO'
p2957
g1
sS'AMU'
p2958
S'NX'
p2959
sS'AMT'
p2960
S'TZ'
p2961
sS'AMW'
p2962
S'ZV'
p2963
sS'AMV'
p2964
g1
sS'KUS'
p2965
g1
sS'EJV'
p2966
g1
sS'RBC'
p2967
g1
sS'TJK'
p2968
g1
sS'WLX'
p2969
g1
sS'WLR'
p2970
g1
sS'WLS'
p2971
g1
sS'WLT'
p2972
g1
sS'WLV'
p2973
g1
sS'TJN'
p2974
g1
sS'WLK'
p2975
g1
sS'WLA'
p2976
g1
sS'WLB'
p2977
g1
sS'WLC'
p2978
S'2W'
p2979
sS'WLG'
p2980
S'G6'
p2981
sS'JJA'
p2982
S'7C'
p2983
sS'JSE'
p2984
g1
sS'JSA'
p2985
S'3K'
p2986
sS'JSM'
p2987
g1
sS'JSH'
p2988
g1
sS'JSI'
p2989
g1
sS'JSJ'
p2990
g1
sS'JST'
p2991
S'JQ'
p2992
sS'JSV'
p2993
g1
sS'JSW'
p2994
g1
sS'JSP'
p2995
g1
sS'BAE'
p2996
g1
sS'TOX'
p2997
g1
sS'TOY'
p2998
g1
sS'TOR'
p2999
g1
sS'TOS'
p3000
S'PM'
p3001
sS'TOP'
p3002
g1
sS'TOW'
p3003
g1
sS'TOT'
p3004
g1
sS'TOJ'
p3005
g1
sS'TOK'
p3006
S'CG'
p3007
sS'TOH'
p3008
g1
sS'TON'
p3009
g1
sS'TOL'
p3010
S'TI'
p3011
sS'TOM'
p3012
S'BY'
p3013
sS'TOB'
p3014
S'7T'
p3015
sS'OFF'
p3016
g1
sS'TOF'
p3017
g1
sS'HIP'
p3018
g1
sS'NHG'
p3019
g1
sS'HIS'
p3020
g1
sS'HIT'
p3021
g1
sS'NHL'
p3022
g1
sS'NHK'
p3023
g1
sS'NHT'
p3024
g1
sS'HIB'
p3025
g1
sS'HID'
p3026
g1
sS'HIF'
p3027
g1
sS'NHR'
p3028
g1
sS'HIN'
p3029
g1
sS'NHZ'
p3030
g1
sS'EGY'
p3031
g1
sS'EGX'
p3032
g1
sS'EGR'
p3033
g1
sS'EGV'
p3034
g1
sS'EGU'
p3035
S'H7'
p3036
sS'EGJ'
p3037
g1
sS'EGO'
p3038
g1
sS'EGN'
p3039
g1
sS'EGL'
p3040
g1
sS'EGF'
p3041
S'MQ'
p3042
sS'LBQ'
p3043
g1
sS'RAG'
p3044
g1
sS'RAD'
p3045
g1
sS'LBR'
p3046
g1
sS'RAC'
p3047
g1
sS'LBW'
p3048
g1
sS'RAA'
p3049
g1
sS'FGT'
p3050
g1
sS'RAL'
p3051
g1
sS'RAM'
p3052
S'AT'
p3053
sS'FGP'
p3054
g1
sS'RAK'
p3055
g1
sS'RAH'
p3056
g1
sS'RAI'
p3057
g1
sS'RAV'
p3058
g1
sS'FGN'
p3059
g1
sS'RAU'
p3060
g1
sS'RAR'
p3061
S'GZ'
p3062
sS'IAS'
p3063
g1
sS'RAP'
p3064
g1
sS'RAQ'
p3065
g1
sS'LBI'
p3066
g1
sS'LBH'
p3067
g1
sS'RAZ'
p3068
g1
sS'FGA'
p3069
g1
sS'RAX'
p3070
g1
sS'FGC'
p3071
g1
sS'BFC'
p3072
g1
sS'BFA'
p3073
g1
sS'BFG'
p3074
g1
sS'BFF'
p3075
g1
sS'YFS'
p3076
g1
sS'BFO'
p3077
g1
sS'BFN'
p3078
g1
sS'BFL'
p3079
S'J4'
p3080
sS'BFS'
p3081
g1
sS'BFR'
p3082
g1
sS'BFW'
p3083
g1
sS'IFT'
p3084
g1
sS'OCM'
p3085
S'UQ'
p3086
sS'OCO'
p3087
g1
sS'OCN'
p3088
g1
sS'OCA'
p3089
S'R7'
p3090
sS'IFX'
p3091
g1
sS'IFF'
p3092
g1
sS'IFA'
p3093
g1
sS'IFC'
p3094
g1
sS'IFL'
p3095
g1
sS'OCS'
p3096
g1
sS'IFI'
p3097
g1
sS'CEG'
p3098
g1
sS'CEF'
p3099
g1
sS'CEE'
p3100
g1
sS'CED'
p3101
g1
sS'CEC'
p3102
g1
sS'CEB'
p3103
S'5J'
p3104
sS'CEA'
p3105
S'3C'
p3106
sS'PKZ'
p3107
g1
sS'CEM'
p3108
g1
sS'CEV'
p3109
g1
sS'CET'
p3110
g1
sS'CES'
p3111
S'MU'
p3112
sS'CER'
p3113
g1
sS'CEP'
p3114
g1
sS'NEN'
p3115
g1
sS'CEX'
p3116
g1
sS'MUR'
p3117
g1
sS'MUA'
p3118
g1
sS'MUN'
p3119
g1
sS'MUI'
p3120
g1
sS'ASS'
p3121
g1
sS'ASR'
p3122
g1
sS'ASQ'
p3123
S'EV'
p3124
sS'ASP'
p3125
g1
sS'ASW'
p3126
g1
sS'ASV'
p3127
g1
sS'ASU'
p3128
g1
sS'AST'
p3129
g1
sS'ASZ'
p3130
S'OB'
p3131
sS'ASY'
p3132
g1
sS'ASX'
p3133
g1
sS'NUN'
p3134
g1
sS'ASB'
p3135
g1
sS'ASA'
p3136
S'AS'
p3137
sS'ASG'
p3138
g1
sS'ASF'
p3139
g1
sS'ASE'
p3140
S'PL'
p3141
sS'ASD'
p3142
S'4D'
p3143
sS'ASK'
p3144
g1
sS'ASJ'
p3145
g1
sS'ASI'
p3146
g1
sS'ASH'
p3147
S'YV'
p3148
sS'ASO'
p3149
g1
sS'ASN'
p3150
g1
sS'ASM'
p3151
g1
sS'ASL'
p3152
g1
sS'DUK'
p3153
g1
sS'DUN'
p3154
g1
sS'DUO'
p3155
g1
sS'DUB'
p3156
g1
sS'NCS'
p3157
g1
sS'KWA'
p3158
g1
sS'KWN'
p3159
g1
sS'TFY'
p3160
g1
sS'NCA'
p3161
S'KZ'
p3162
sS'FNV'
p3163
g1
sS'LIJ'
p3164
g1
sS'FNA'
p3165
g1
sS'WNA'
p3166
g1
sS'WNR'
p3167
g1
sS'TBS'
p3168
g1
sS'HKG'
p3169
g1
sS'NVR'
p3170
S'1I'
p3171
sS'NVP'
p3172
g1
sS'IYE'
p3173
S'IY'
p3174
sS'PPC'
p3175
g1
sS'NVG'
p3176
g1
sS'PPA'
p3177
g1
sS'CIX'
p3178
S'G3'
p3179
sS'PPG'
p3180
g1
sS'PPK'
p3181
g1
sS'PPH'
p3182
g1
sS'PPM'
p3183
g1
sS'PPS'
p3184
g1
sS'PPQ'
p3185
g1
sS'ANW'
p3186
g1
sS'PPW'
p3187
S'RL'
p3188
sS'NVK'
p3189
g1
sS'ANZ'
p3190
S'NZ'
p3191
sS'GSP'
p3192
g1
sS'GSS'
p3193
g1
sS'GSW'
p3194
g1
sS'GSV'
p3195
g1
sS'GSY'
p3196
g1
sS'TIW'
p3197
g1
sS'TIP'
p3198
g1
sS'TIR'
p3199
g1
sS'TIS'
p3200
g1
sS'TIL'
p3201
g1
sS'TIM'
p3202
g1
sS'TIN'
p3203
g1
sS'TMS'
p3204
g1
sS'TIH'
p3205
g1
sS'TIK'
p3206
g1
sS'TID'
p3207
S'8T'
p3208
sS'GWA'
p3209
g1
sS'GSK'
p3210
g1
sS'GSJ'
p3211
g1
sS'GSM'
p3212
S'B4'
p3213
sS'TIA'
p3214
g1
sS'TIB'
p3215
S'8R'
p3216
sS'TIC'
p3217
g1
sS'HKR'
p3218
g1
sS'HKS'
p3219
g1
sS'TMX'
p3220
g1
sS'HKH'
p3221
g1
sS'HKI'
p3222
g1
sS'HKN'
p3223
g1
sS'HKL'
p3224
g1
sS'VUO'
p3225
g1
sS'HKB'
p3226
g1
sS'HKA'
p3227
S'SO'
p3228
sS'VUL'
p3229
g1
sS'HKE'
p3230
S'UO'
p3231
sS'SQR'
p3232
g1
sS'SQL'
p3233
g1
sS'SQC'
p3234
S'SQ'
p3235
sS'VUR'
p3236
g1
sS'SQA'
p3237
g1
sS'SQF'
p3238
g1
sS'TME'
p3239
g1
sS'EEZ'
p3240
S'GJ'
p3241
sS'EEU'
p3242
g1
sS'EET'
p3243
g1
sS'ERV'
p3244
g1
sS'EEA'
p3245
S'EU'
p3246
sS'ROH'
p3247
g1
sS'ROI'
p3248
g1
sS'ROJ'
p3249
g1
sS'ROK'
p3250
S'N7'
p3251
sS'ROL'
p3252
g1
sS'ROM'
p3253
S'BQ'
p3254
sS'RON'
p3255
S'ON'
p3256
sS'ROO'
p3257
g1
sS'LLS'
p3258
g1
sS'TML'
p3259
S'OF'
p3260
sS'ROC'
p3261
g1
sS'ROD'
p3262
g1
sS'ROE'
p3263
g1
sS'ROF'
p3264
g1
sS'ROG'
p3265
g1
sS'ROX'
p3266
g1
sS'ROY'
p3267
g1
sS'LLO'
p3268
g1
sS'LLM'
p3269
S'YL'
p3270
sS'LLL'
p3271
g1
sS'ROP'
p3272
g1
sS'LLB'
p3273
S'LB'
p3274
sS'LLA'
p3275
g1
sS'ROS'
p3276
g1
sS'ROT'
p3277
S'RO'
p3278
sS'ROU'
p3279
g1
sS'ROV'
p3280
g1
sS'KAV'
p3281
g1
sS'BDG'
p3282
g1
sS'BDF'
p3283
g1
sS'BDA'
p3284
S'BZ'
p3285
sS'BDM'
p3286
g1
sS'BDN'
p3287
g1
sS'BDV'
p3288
g1
sS'BDS'
p3289
g1
sS'BDR'
p3290
g1
sS'IDR'
p3291
g1
sS'IDP'
p3292
g1
sS'IDL'
p3293
g1
sS'IDG'
p3294
g1
sS'IDE'
p3295
S'DH'
p3296
sS'IDA'
p3297
g1
sS'CGI'
p3298
g1
sS'PMU'
p3299
g1
sS'PMV'
p3300
g1
sS'PMW'
p3301
S'I7'
p3302
sS'CGM'
p3303
g1
sS'CGL'
p3304
g1
sS'PMR'
p3305
g1
sS'PMS'
p3306
g1
sS'CGA'
p3307
g1
sS'CGC'
p3308
g1
sS'CGB'
p3309
g1
sS'PMX'
p3310
g1
sS'PMY'
p3311
g1
sS'CGG'
p3312
g1
sS'CGY'
p3313
g1
sS'CGX'
p3314
g1
sS'PMA'
p3315
g1
sS'PMC'
p3316
g1
sS'PMM'
p3317
g1
sS'CGS'
p3318
g1
sS'PMO'
p3319
g1
sS'CGU'
p3320
g1
sS'CGW'
p3321
g1
sS'CGV'
p3322
g1
sS'FED'
p3323
g1
sS'FEE'
p3324
g1
sS'FEC'
p3325
g1
sS'FEO'
p3326
g1
sS'FEI'
p3327
g1
sS'FER'
p3328
g1
sS'FES'
p3329
g1
sS'FEX'
p3330
g1
sS'MSY'
p3331
g1
sS'MSX'
p3332
g1
sS'MSW'
p3333
g1
sS'MSV'
p3334
g1
sS'MSS'
p3335
g1
sS'MSR'
p3336
S'MS'
p3337
sS'MSQ'
p3338
g1
sS'MSP'
p3339
g1
sS'MSO'
p3340
g1
sS'MSN'
p3341
g1
sS'MSM'
p3342
g1
sS'MSL'
p3343
S'M7'
p3344
sS'MSK'
p3345
g1
sS'MSI'
p3346
S'M9'
p3347
sS'MSH'
p3348
g1
sS'MSG'
p3349
g1
sS'MSF'
p3350
g1
sS'MSC'
p3351
g1
sS'MSA'
p3352
g1
sS'AQU'
p3353
g1
sS'AQT'
p3354
g1
sS'IJA'
p3355
g1
sS'AQZ'
p3356
g1
sS'AQA'
p3357
g1
sS'AQL'
p3358
g1
sS'AQO'
p3359
g1
sS'AQN'
p3360
g1
sS'DWR'
p3361
g1
sS'DWW'
p3362
g1
sS'DWT'
p3363
S'0D'
p3364
sS'DWN'
p3365
g1
sS'KYM'
p3366
g1
sS'KYC'
p3367
g1
sS'KYB'
p3368
g1
sS'NYS'
p3369
g1
sS'KYR'
p3370
g1
sS'KYV'
p3371
S'KY'
p3372
sS'BYT'
p3373
g1
sS'RTR'
p3374
g1
sS'BYR'
p3375
g1
sS'BYL'
p3376
g1
sS'BYE'
p3377
S'BM'
p3378
sS'BYC'
p3379
g1
sS'BYA'
p3380
g1
sS'NYL'
p3381
g1
sS'NYB'
p3382
g1
sS'YBE'
p3383
g1
sS'NYA'
p3384
g1
sS'VBC'
p3385
g1
sS'VBA'
p3386
g1
sS'VBG'
p3387
g1
sS'VBD'
p3388
g1
sS'VBH'
p3389
S'DJ'
p3390
sS'VBW'
p3391
S'2J'
p3392
sS'WHE'
p3393
g1
sS'WHT'
p3394
g1
sS'WHR'
p3395
g1
sS'WHS'
p3396
g1
sS'WHY'
p3397
g1
sS'RCG'
p3398
g1
sS'RCC'
p3399
g1
sS'PRE'
p3400
g1
sS'PRD'
p3401
g1
sS'JOR'
p3402
S'0B'
p3403
sS'JOS'
p3404
S'L3'
p3405
sS'PRA'
p3406
g1
sS'PRC'
p3407
g1
sS'PRM'
p3408
g1
sS'PRL'
p3409
g1
sS'PRO'
p3410
g1
sS'PRN'
p3411
g1
sS'PRI'
p3412
g1
sS'PRH'
p3413
g1
sS'JOA'
p3414
g1
sS'JOB'
p3415
g1
sS'PRV'
p3416
g1
sS'PRP'
p3417
g1
sS'PRR'
p3418
g1
sS'JOL'
p3419
S'IP'
p3420
sS'PRX'
p3421
g1
sS'JON'
p3422
g1
sS'PRZ'
p3423
S'AD'
p3424
sS'MAQ'
p3425
g1
sS'MAS'
p3426
S'MH'
p3427
sS'SNE'
p3428
g1
sS'SNB'
p3429
S'NB'
p3430
sS'MAT'
p3431
g1
sS'UYA'
p3432
S'4Y'
p3433
sS'UYC'
p3434
S'UY'
p3435
sS'MAX'
p3436
g1
sS'MAZ'
p3437
g1
sS'SNV'
p3438
g1
sS'NLS'
p3439
g1
sS'TKE'
p3440
g1
sS'HMX'
p3441
g1
sS'HMY'
p3442
S'HQ'
p3443
sS'NLW'
p3444
g1
sS'HMT'
p3445
g1
sS'HMV'
p3446
g1
sS'HMP'
p3447
g1
sS'SNT'
p3448
g1
sS'HMR'
p3449
g1
sS'HMS'
p3450
S'DU'
p3451
sS'NLA'
p3452
g1
sS'HMM'
p3453
g1
sS'NLC'
p3454
g1
sS'SNU'
p3455
g1
sS'TKR'
p3456
g1
sS'NLG'
p3457
g1
sS'HMD'
p3458
g1
sS'NLK'
p3459
g1
sS'HMA'
p3460
g1
sS'TKX'
p3461
g1
sS'HMC'
p3462
g1
sS'DLA'
p3463
S'EN'
p3464
sS'DLK'
p3465
g1
sS'DLI'
p3466
g1
sS'DLH'
p3467
S'LH'
p3468
sS'DLS'
p3469
g1
sS'DLR'
p3470
g1
sS'DLU'
p3471
g1
sS'SSY'
p3472
g1
sS'SSX'
p3473
S'L4'
p3474
sS'SSZ'
p3475
g1
sS'SSU'
p3476
g1
sS'SST'
p3477
g1
sS'SSW'
p3478
g1
sS'SSV'
p3479
S'5G'
p3480
sS'SSQ'
p3481
S'QF'
p3482
sS'SSP'
p3483
g1
sS'SSS'
p3484
g1
sS'SSM'
p3485
g1
sS'SSL'
p3486
g1
sS'SSO'
p3487
g1
sS'SSN'
p3488
g1
sS'SSI'
p3489
g1
sS'SSH'
p3490
g1
sS'SSK'
p3491
g1
sS'SSE'
p3492
g1
sS'SSD'
p3493
g1
sS'SSG'
p3494
g1
sS'MAN'
p3495
g1
sS'SSC'
p3496
g1
sS'SSB'
p3497
g1
sS'ECG'
p3498
g1
sS'ECF'
p3499
g1
sS'ECE'
p3500
S'4F'
p3501
sS'ECD'
p3502
g1
sS'ECC'
p3503
S'QE'
p3504
sS'ECB'
p3505
g1
sS'ECA'
p3506
S'UI'
p3507
sS'RMU'
p3508
g1
sS'LNT'
p3509
g1
sS'RMX'
p3510
g1
sS'ECL'
p3511
g1
sS'LNP'
p3512
S'L7'
p3513
sS'ECI'
p3514
g1
sS'ECV'
p3515
g1
sS'ECU'
p3516
g1
sS'ECT'
p3517
g1
sS'RMF'
p3518
g1
sS'RMG'
p3519
g1
sS'LNK'
p3520
g1
sS'RME'
p3521
S'R3'
p3522
sS'LNE'
p3523
S'XL'
p3524
sS'LNG'
p3525
g1
sS'RMI'
p3526
g1
sS'LNA'
p3527
g1
sS'RMO'
p3528
g1
sS'RML'
p3529
S'MV'
p3530
sS'ECX'
p3531
g1
sS'BBO'
p3532
S'F7'
p3533
sS'BBL'
p3534
g1
sS'BBE'
p3535
g1
sS'BBD'
p3536
S'BF'
p3537
sS'BBC'
p3538
S'BG'
p3539
sS'BBB'
p3540
S'VD'
p3541
sS'BBA'
p3542
g1
sS'BBZ'
p3543
g1
sS'BBV'
p3544
g1
sS'BBT'
p3545
g1
sS'BBS'
p3546
g1
sS'BBR'
p3547
S'S3'
p3548
sS'CYS'
p3549
g1
sS'CYP'
p3550
S'CY'
p3551
sS'POY'
p3552
g1
sS'POV'
p3553
g1
sS'CYZ'
p3554
S'8Y'
p3555
sS'POT'
p3556
g1
sS'POR'
p3557
g1
sS'CYC'
p3558
g1
sS'CYA'
p3559
g1
sS'CYG'
p3560
g1
sS'CYF'
p3561
g1
sS'CYE'
p3562
g1
sS'CYD'
p3563
S'ZA'
p3564
sS'POF'
p3565
g1
sS'CYH'
p3566
S'3Q'
p3567
sS'CYO'
p3568
g1
sS'POC'
p3569
g1
sS'CYL'
p3570
g1
sS'FKI'
p3571
g1
sS'FKL'
p3572
g1
sS'FKS'
p3573
g1
sS'VLA'
p3574
g1
sS'CCY'
p3575
g1
sS'AWZ'
p3576
g1
sS'AWY'
p3577
g1
sS'AWW'
p3578
S'6G'
p3579
sS'AWV'
p3580
g1
sS'AWU'
p3581
S'7E'
p3582
sS'AWT'
p3583
g1
sS'AWS'
p3584
g1
sS'AWR'
p3585
g1
sS'AWQ'
p3586
S'QZ'
p3587
sS'AWO'
p3588
g1
sS'AWN'
p3589
g1
sS'AWL'
p3590
g1
sS'AWK'
p3591
g1
sS'MQT'
p3592
g1
sS'AWI'
p3593
S'ZW'
p3594
sS'AWE'
p3595
S'US'
p3596
sS'AWD'
p3597
g1
sS'AWC'
p3598
S'ZT'
p3599
sS'AWB'
p3600
g1
sS'CCV'
p3601
g1
sS'DQA'
p3602
g1
sS'TTA'
p3603
g1
sS'CCM'
p3604
S'XK'
p3605
sS'VLT'
p3606
g1
sS'PRY'
p3607
g1
sS'ALO'
p3608
g1
sS'WJA'
p3609
S'WS'
p3610
sS'VSS'
p3611
g1
sS'RVC'
p3612
g1
sS'RVE'
p3613
g1
sS'RVI'
p3614
g1
sS'RVN'
p3615
g1
sS'RVM'
p3616
g1
sS'RVL'
p3617
g1
sS'RVR'
p3618
g1
sS'RVP'
p3619
g1
sS'RVV'
p3620
g1
sS'RVT'
p3621
g1
sS'GYP'
p3622
g1
sS'XSS'
p3623
g1
sS'XSA'
p3624
g1
sS'XSN'
p3625
g1
sS'XSL'
p3626
g1
sS'PTO'
p3627
g1
sS'PTN'
p3628
S'P8'
p3629
sS'JMX'
p3630
g1
sS'PTL'
p3631
g1
sS'PTK'
p3632
g1
sS'PTI'
p3633
g1
sS'PTH'
p3634
g1
sS'JMR'
p3635
g1
sS'PTE'
p3636
g1
sS'PTD'
p3637
g1
sS'PTC'
p3638
g1
sS'PTB'
p3639
g1
sS'JMT'
p3640
g1
sS'JMJ'
p3641
g1
sS'PTY'
p3642
g1
sS'JMM'
p3643
g1
sS'JMB'
p3644
g1
sS'JMC'
p3645
g1
sS'PTT'
p3646
g1
sS'PTS'
p3647
g1
sS'PTR'
p3648
g1
sS'PTQ'
p3649
g1
sS'PTP'
p3650
S'GP'
p3651
sS'SUG'
p3652
g1
sS'SUF'
p3653
S'PI'
p3654
sS'SUE'
p3655
g1
sS'SUD'
p3656
S'SD'
p3657
sS'SUB'
p3658
g1
sS'SUA'
p3659
g1
sS'SUO'
p3660
g1
sS'SUN'
p3661
g1
sS'SUM'
p3662
g1
sS'SUK'
p3663
g1
sS'SUI'
p3664
g1
sS'SUH'
p3665
g1
sS'SUW'
p3666
S'ZA'
p3667
sS'SUV'
p3668
g1
sS'SUU'
p3669
g1
sS'SUT'
p3670
g1
sS'SUS'
p3671
S'EZ'
p3672
sS'SUR'
p3673
g1
sS'SUP'
p3674
g1
sS'SUY'
p3675
g1
sS'TEH'
p3676
g1
sS'TEJ'
p3677
g1
sS'TEL'
p3678
g1
sS'TEM'
p3679
g1
sS'TEN'
p3680
g1
sS'NBS'
p3681
g1
sS'TEA'
p3682
g1
sS'TEB'
p3683
g1
sS'TEC'
p3684
g1
sS'TED'
p3685
g1
sS'TEE'
p3686
g1
sS'TEF'
p3687
g1
sS'NBK'
p3688
S'F4'
p3689
sS'NBN'
p3690
g1
sS'NBL'
p3691
g1
sS'TEP'
p3692
S'UE'
p3693
sS'TER'
p3694
g1
sS'TES'
p3695
g1
sS'TET'
p3696
g1
sS'GJT'
p3697
g1
sS'NBE'
p3698
g1
sS'DND'
p3699
g1
sS'DNA'
p3700
g1
sS'DNC'
p3701
g1
sS'DNM'
p3702
S'J7'
p3703
sS'DNL'
p3704
g1
sS'DNI'
p3705
g1
sS'DNK'
p3706
g1
sS'DNJ'
p3707
g1
sS'DNU'
p3708
g1
sS'DNV'
p3709
S'D9'
p3710
sS'DNR'
p3711
g1
sS'DNY'
p3712
g1
sS'QCC'
p3713
g1
sS'QCL'
p3714
S'QD'
p3715
sS'EAI'
p3716
g1
sS'EAH'
p3717
g1
sS'EAK'
p3718
g1
sS'RKW'
p3719
g1
sS'EAM'
p3720
g1
sS'EAL'
p3721
S'EA'
p3722
sS'EAN'
p3723
g1
sS'EAC'
p3724
g1
sS'EAB'
p3725
g1
sS'EAE'
p3726
g1
sS'EAD'
p3727
g1
sS'EAG'
p3728
g1
sS'EAF'
p3729
S'E7'
p3730
sS'EAY'
p3731
S'EE'
p3732
sS'EAX'
p3733
g1
sS'EAZ'
p3734
g1
sS'RKA'
p3735
g1
sS'RKC'
p3736
g1
sS'EAQ'
p3737
S'QF'
p3738
sS'RKM'
p3739
g1
sS'EAR'
p3740
g1
sS'RKH'
p3741
S'RK'
p3742
sS'EAT'
p3743
g1
sS'EAV'
p3744
g1
sS'NWT'
p3745
g1
sS'HOA'
p3746
S'H5'
p3747
sS'HOL'
p3748
g1
sS'HOM'
p3749
g1
sS'IMX'
p3750
S'C4'
p3751
sS'AMJ'
p3752
g1
sS'HOR'
p3753
g1
sS'HOZ'
p3754
g1
sS'AMO'
p3755
g1
sS'RMS'
p3756
g1
sS'AMG'
p3757
g1
sS'OYE'
p3758
g1
sS'AMY'
p3759
g1
sS'AMX'
p3760
S'AM'
p3761
sS'NWG'
p3762
g1
sS'FIR'
p3763
g1
sS'FIV'
p3764
g1
sS'LHN'
p3765
S'EO'
p3766
sS'FIX'
p3767
g1
sS'FIC'
p3768
g1
sS'LHT'
p3769
g1
sS'FIF'
p3770
S'OF'
p3771
sS'LHR'
p3772
g1
sS'RMV'
p3773
g1
sS'FII'
p3774
g1
sS'FIN'
p3775
S'AY'
p3776
sS'NWN'
p3777
g1
sS'FIL'
p3778
g1
sS'AMR'
p3779
g1
sS'DST'
p3780
g1
sS'DSU'
p3781
g1
sS'DSR'
p3782
S'WD'
p3783
sS'DSQ'
p3784
g1
sS'DSN'
p3785
g1
sS'DSO'
p3786
g1
sS'DSL'
p3787
g1
sS'DSM'
p3788
S'4M'
p3789
sS'DSK'
p3790
g1
sS'DSH'
p3791
g1
sS'DSC'
p3792
g1
sS'DSA'
p3793
g1
sS'AUA'
p3794
S'OS'
p3795
sS'AUC'
p3796
g1
sS'AUB'
p3797
S'IQ'
p3798
sS'AUD'
p3799
g1
sS'AUF'
p3800
g1
sS'AUI'
p3801
S'PS'
p3802
sS'AUH'
p3803
S'MO'
p3804
sS'AUJ'
p3805
g1
sS'AUM'
p3806
g1
sS'AUL'
p3807
S'5N'
p3808
sS'AUO'
p3809
g1
sS'AUN'
p3810
g1
sS'AUP'
p3811
g1
sS'AUS'
p3812
S'NO'
p3813
sS'AUR'
p3814
S'GR'
p3815
sS'AUU'
p3816
g1
sS'AUT'
p3817
S'AU'
p3818
sS'AUY'
p3819
g1
sS'AUX'
p3820
g1
sS'AUZ'
p3821
S'AO'
p3822
sS'BNZ'
p3823
g1
sS'HAK'
p3824
g1
sS'BNR'
p3825
g1
sS'HAD'
p3826
S'H9'
p3827
sS'BNT'
p3828
g1
sS'VFC'
p3829
g1
sS'HAP'
p3830
g1
sS'VFT'
p3831
g1
sS'WTP'
p3832
g1
sS'WTV'
p3833
g1
sS'HAT'
p3834
g1
sS'BNF'
p3835
S'BN'
p3836
sS'WTA'
p3837
S'FK'
p3838
sS'WTC'
p3839
g1
sS'BNE'
p3840
g1
sS'WTF'
p3841
g1
sS'BND'
p3842
g1
sS'WTN'
p3843
g1
sS'RMD'
p3844
g1
sS'RTE'
p3845
g1
sS'RTM'
p3846
g1
sS'RTO'
p3847
g1
sS'RTN'
p3848
g1
sS'RTH'
p3849
g1
sS'RTU'
p3850
g1
sS'RTV'
p3851
g1
sS'RTQ'
p3852
g1
sS'RTS'
p3853
g1
sS'FXT'
p3854
g1
sS'ECN'
p3855
g1
sS'RZV'
p3856
g1
sS'ISS'
p3857
S'IG'
p3858
sS'ISR'
p3859
S'6H'
p3860
sS'ISW'
p3861
S'IF'
p3862
sS'ISV'
p3863
S'WC'
p3864
sS'IST'
p3865
g1
sS'ISK'
p3866
g1
sS'ISI'
p3867
g1
sS'ISN'
p3868
g1
sS'ISM'
p3869
g1
sS'ISL'
p3870
g1
sS'ISA'
p3871
g1
sS'ISG'
p3872
S'6P'
p3873
sS'ISF'
p3874
g1
sS'ISD'
p3875
g1
sS'PVU'
p3876
g1
sS'JKY'
p3877
g1
sS'PVV'
p3878
S'PC'
p3879
sS'PVA'
p3880
g1
sS'PVG'
p3881
g1
sS'JKK'
p3882
S'JK'
p3883
sS'PVI'
p3884
g1
sS'PVK'
p3885
g1
sS'PVL'
p3886
g1
sS'PVO'
p3887
g1
sS'PVN'
p3888
S'P9'
p3889
sS'FRC'
p3890
g1
sS'FRA'
p3891
g1
sS'FRG'
p3892
g1
sS'FRE'
p3893
S'FP'
p3894
sS'FRK'
p3895
g1
sS'FRJ'
p3896
g1
sS'FRN'
p3897
g1
sS'FRM'
p3898
g1
sS'FRL'
p3899
g1
sS'FRR'
p3900
g1
sS'FRQ'
p3901
g1
sS'FRW'
p3902
g1
sS'FRT'
p3903
g1
sS'SWI'
p3904
g1
sS'SWH'
p3905
g1
sS'SWK'
p3906
g1
sS'SWJ'
p3907
g1
sS'SWL'
p3908
g1
sS'SWO'
p3909
g1
sS'SWN'
p3910
S'PT'
p3911
sS'SWA'
p3912
S'WN'
p3913
sS'SWC'
p3914
g1
sS'SWB'
p3915
g1
sS'SWE'
p3916
g1
sS'SWD'
p3917
S'A4'
p3918
sS'SWG'
p3919
S'WG'
p3920
sS'SWF'
p3921
g1
sS'SWY'
p3922
g1
sS'SWX'
p3923
g1
sS'SWZ'
p3924
g1
sS'SWQ'
p3925
g1
sS'SWP'
p3926
g1
sS'SWS'
p3927
g1
sS'SWR'
p3928
S'SR'
p3929
sS'SWU'
p3930
g1
sS'SWT'
p3931
g1
sS'SWW'
p3932
S'S8'
p3933
sS'SWV'
p3934
S'WV'
p3935
sS'TGW'
p3936
S'TT'
p3937
sS'TGT'
p3938
g1
sS'TGZ'
p3939
S'A9'
p3940
sS'TGX'
p3941
g1
sS'TGY'
p3942
g1
sS'TGC'
p3943
g1
sS'TGA'
p3944
S'YT'
p3945
sS'TGE'
p3946
g1
sS'TGI'
p3947
g1
sS'TGN'
p3948
g1
sS'TGO'
p3949
g1
sS'TGM'
p3950
g1
sS'DHM'
p3951
g1
sS'DHL'
p3952
S'ER'
p3953
sS'DHK'
p3954
g1
sS'DHI'
p3955
S'KI'
p3956
sS'DHE'
p3957
g1
sS'DHC'
p3958
g1
sS'DHA'
p3959
g1
sS'DHX'
p3960
S'ES'
p3961
sS'DHV'
p3962
g1
sS'QAT'
p3963
g1
sS'QAQ'
p3964
g1
sS'QAS'
p3965
g1
sS'QAF'
p3966
g1
sS'QAC'
p3967
g1
sS'QAH'
p3968
g1
sS'QAJ'
p3969
g1
sS'RIT'
p3970
S'6K'
p3971
sS'RIU'
p3972
g1
sS'RIS'
p3973
g1
sS'RIO'
p3974
S'RL'
p3975
sS'RIL'
p3976
g1
sS'RIM'
p3977
g1
sS'RIF'
p3978
g1
sS'RID'
p3979
g1
sS'RIC'
p3980
g1
sS'RIA'
p3981
g1
sS'HAH'
p3982
S'GG'
p3983
sS'HAI'
p3984
g1
sS'HAJ'
p3985
g1
sS'BNX'
p3986
S'KG'
p3987
sS'HAL'
p3988
S'HA'
p3989
sS'HAM'
p3990
S'2T'
p3991
sS'HAN'
p3992
g1
sS'BNS'
p3993
g1
sS'HAA'
p3994
g1
sS'HAC'
p3995
g1
sS'BNW'
p3996
g1
sS'BNV'
p3997
g1
sS'HAF'
p3998
g1
sS'HAG'
p3999
S'H6'
p4000
sS'HAX'
p4001
g1
sS'BNI'
p4002
g1
sS'LAG'
p4003
g1
sS'BNL'
p4004
g1
sS'BNC'
p4005
g1
sS'BNB'
p4006
g1
sS'HAR'
p4007
S'HB'
p4008
sS'HAS'
p4009
g1
sS'BNG'
p4010
g1
sS'HAU'
p4011
g1
sS'HAV'
p4012
g1
sS'HAW'
p4013
g1
sS'TXF'
p4014
g1
sS'GWL'
p4015
S'IJ'
p4016
sS'FOP'
p4017
g1
sS'FOR'
p4018
g1
sS'FOS'
p4019
S'VY'
p4020
sS'LJA'
p4021
g1
sS'VGA'
p4022
S'6V'
p4023
sS'LJY'
p4024
g1
sS'FOB'
p4025
g1
sS'FOC'
p4026
g1
sS'FOM'
p4027
S'SJ'
p4028
sS'FOI'
p4029
g1
sS'MCB'
p4030
g1
sS'JAZ'
p4031
S'JO'
p4032
sS'JAX'
p4033
g1
sS'CHH'
p4034
S'HU'
p4035
sS'CHI'
p4036
g1
sS'JAT'
p4037
S'JU'
p4038
sS'CHL'
p4039
g1
sS'JAL'
p4040
S'JL'
p4041
sS'JAM'
p4042
g1
sS'JAK'
p4043
g1
sS'XJA'
p4044
g1
sS'XJC'
p4045
g1
sS'JAI'
p4046
S'9W'
p4047
sS'XJT'
p4048
g1
sS'CHZ'
p4049
g1
sS'VDR'
p4050
g1
sS'VDA'
p4051
S'VI'
p4052
sS'GVI'
p4053
g1
sS'VDO'
p4054
g1
sS'VZL'
p4055
g1
sS'WVL'
p4056
S'W6'
p4057
sS'GNY'
p4058
g1
sS'WVA'
p4059
g1
sS'GVG'
p4060
g1
sS'VZR'
p4061
g1
sS'RRO'
p4062
g1
sS'RRM'
p4063
g1
sS'RRL'
p4064
g1
sS'RRF'
p4065
g1
sS'RRE'
p4066
g1
sS'RRC'
p4067
g1
sS'RRB'
p4068
g1
sS'RRA'
p4069
g1
sS'RRZ'
p4070
g1
sS'RRY'
p4071
g1
sS'RRV'
p4072
g1
sS'RRU'
p4073
g1
sS'RRT'
p4074
g1
sS'RRS'
p4075
g1
sS'RRR'
p4076
g1
sS'USF'
p4077
g1
sS'USC'
p4078
g1
sS'USB'
p4079
g1
sS'USA'
p4080
S'US'
p4081
sS'XWW'
p4082
g1
sS'USK'
p4083
g1
sS'XWS'
p4084
g1
sS'USH'
p4085
S'UH'
p4086
sS'UST'
p4087
g1
sS'USX'
p4088
g1
sS'PXX'
p4089
g1
sS'PXP'
p4090
g1
sS'PXA'
p4091
g1
sS'FPG'
p4092
g1
sS'FPA'
p4093
g1
sS'HHE'
p4094
g1
sS'FPO'
p4095
S'5O'
p4096
sS'FPS'
p4097
g1
sS'FPR'
p4098
g1
sS'FPY'
p4099
g1
sS'NKZ'
p4100
g1
sS'SIS'
p4101
g1
sS'SIR'
p4102
g1
sS'AJY'
p4103
g1
sS'SIP'
p4104
g1
sS'SIW'
p4105
g1
sS'SIV'
p4106
g1
sS'SIT'
p4107
S'XS'
p4108
sS'SIZ'
p4109
g1
sS'SIY'
p4110
g1
sS'SIB'
p4111
S'5M'
p4112
sS'SIA'
p4113
S'SQ'
p4114
sS'SIE'
p4115
g1
sS'SIJ'
p4116
g1
sS'SII'
p4117
g1
sS'SIH'
p4118
S'SI'
p4119
sS'SIO'
p4120
g1
sS'SIM'
p4121
g1
sS'SIL'
p4122
g1
sS'TAT'
p4123
g1
sS'TAU'
p4124
g1
sS'TAV'
p4125
g1
sS'TAP'
p4126
S'TP'
p4127
sS'TAR'
p4128
S'TU'
p4129
sS'TAS'
p4130
g1
sS'TAX'
p4131
g1
sS'TAY'
p4132
S'3V'
p4133
sS'TAD'
p4134
g1
sS'TAE'
p4135
S'EQ'
p4136
sS'TAG'
p4137
g1
sS'TAA'
p4138
g1
sS'TAC'
p4139
g1
sS'TAL'
p4140
g1
sS'TAM'
p4141
S'JJ'
p4142
sS'TAN'
p4143
g1
sS'TAO'
p4144
S'VW'
p4145
sS'TAH'
p4146
g1
sS'TAJ'
p4147
g1
sS'DJS'
p4148
g1
sS'JIB'
p4149
g1
sS'JIC'
p4150
g1
sS'JIA'
p4151
g1
sS'JIM'
p4152
g1
sS'DJA'
p4153
S'HO'
p4154
sS'DJB'
p4155
S'D8'
p4156
sS'DJE'
p4157
g1
sS'GCC'
p4158
g1
sS'GCB'
p4159
g1
sS'QGA'
p4160
g1
sS'KBA'
p4161
g1
sS'KBV'
p4162
g1
sS'AFF'
p4163
S'VJ'
p4164
sS'NFF'
p4165
g1
sS'HCP'
p4166
g1
sS'BLY'
p4167
g1
sS'HCW'
p4168
S'V9'
p4169
sS'NFA'
p4170
S'M3'
p4171
sS'BLZ'
p4172
g1
sS'BLU'
p4173
g1
sS'BLT'
p4174
g1
sS'BLW'
p4175
g1
sS'HCY'
p4176
S'ZU'
p4177
sS'BLS'
p4178
S'JV'
p4179
sS'BLR'
p4180
g1
sS'HCB'
p4181
g1
sS'BLL'
p4182
g1
sS'HCA'
p4183
g1
sS'BLI'
p4184
g1
sS'GCO'
p4185
S'GR'
p4186
sS'BLK'
p4187
g1
sS'BLJ'
p4188
g1
sS'BLE'
p4189
g1
sS'BLG'
p4190
g1
sS'BLF'
p4191
S'KF'
p4192
sS'BLA'
p4193
g1
sS'HCL'
p4194
g1
sS'BLB'
p4195
g1
sS'OUL'
p4196
g1
sS'AJS'
p4197
g1
sS'LTS'
p4198
g1
sS'LTR'
p4199
S'L5'
p4200
sS'LTW'
p4201
g1
sS'LTU'
p4202
S'LT'
p4203
sS'FMY'
p4204
g1
sS'FMT'
p4205
g1
sS'AJT'
p4206
S'M6'
p4207
sS'FMS'
p4208
g1
sS'LTC'
p4209
g1
sS'LTA'
p4210
g1
sS'LTF'
p4211
S'DV'
p4212
sS'LTE'
p4213
S'XO'
p4214
sS'FMG'
p4215
g1
sS'LTI'
p4216
g1
sS'DIC'
p4217
g1
sS'LTO'
p4218
S'L3'
p4219
sS'FMC'
p4220
g1
sS'LTL'
p4221
g1
sS'AJI'
p4222
g1
sS'AYM'
p4223
g1
sS'AYN'
p4224
g1
sS'AYK'
p4225
g1
sS'AYD'
p4226
g1
sS'AYB'
p4227
g1
sS'AYZ'
p4228
S'3G'
p4229
sS'AYU'
p4230
g1
sS'AYT'
p4231
g1
sS'AYS'
p4232
g1
sS'AYR'
p4233
g1
sS'LAJ'
p4234
S'KJ'
p4235
sS'FFU'
p4236
g1
sS'XLL'
p4237
g1
sS'XLK'
p4238
g1
sS'XLG'
p4239
g1
sS'XLD'
p4240
g1
sS'XLB'
p4241
g1
sS'XLA'
p4242
S'JN'
p4243
sS'FFR'
p4244
S'8F'
p4245
sS'XLT'
p4246
g1
sS'YZR'
p4247
S'Y8'
p4248
sS'IRT'
p4249
S'IT'
p4250
sS'LAT'
p4251
g1
sS'FFF'
p4252
g1
sS'UTM'
p4253
g1
sS'UTR'
p4254
g1
sS'FFD'
p4255
g1
sS'UTS'
p4256
g1
sS'FFC'
p4257
g1
sS'FFB'
p4258
g1
sS'FFA'
p4259
g1
sS'FLG'
p4260
S'9E'
p4261
sS'UTU'
p4262
g1
sS'VJT'
p4263
g1
sS'VJM'
p4264
g1
sS'VJA'
p4265
S'J7'
p4266
sS'IRB'
p4267
g1
sS'VJE'
p4268
g1
sS'IRC'
p4269
S'EP'
p4270
sS'WPT'
p4271
g1
sS'WPR'
p4272
g1
sS'WPK'
p4273
g1
sS'WPA'
p4274
g1
sS'RPS'
p4275
g1
sS'RPX'
p4276
g1
sS'RPA'
p4277
S'RW'
p4278
sS'RPC'
p4279
g1
sS'RPB'
p4280
S'P5'
p4281
sS'RPH'
p4282
S'RH'
p4283
sS'RPK'
p4284
S'R0'
p4285
sS'RCU'
p4286
g1
sS'HXA'
p4287
S'G5'
p4288
sS'TCH'
p4289
g1
sS'BOX'
p4290
g1
sS'NAC'
p4291
S'NC'
p4292
sS'HBI'
p4293
g1
sS'IWD'
p4294
S'TY'
p4295
sS'PZR'
p4296
S'1I'
p4297
sS'IWS'
p4298
g1
sS'PZA'
p4299
g1
sS'IWY'
p4300
g1
sS'BOS'
p4301
g1
sS'BOT'
p4302
S'BP'
p4303
sS'FVA'
p4304
g1
sS'HBC'
p4305
g1
sS'FVS'
p4306
g1
sS'BOI'
p4307
g1
sS'BOL'
p4308
g1
sS'SKU'
p4309
S'H2'
p4310
sS'SKT'
p4311
S'XT'
p4312
sS'SKW'
p4313
S'OO'
p4314
sS'VME'
p4315
g1
sS'SKQ'
p4316
g1
sS'BON'
p4317
S'JA'
p4318
sS'SKS'
p4319
g1
sS'SKR'
p4320
g1
sS'BOO'
p4321
g1
sS'SKY'
p4322
S'BC'
p4323
sS'SKX'
p4324
S'JZ'
p4325
sS'SKZ'
p4326
g1
sS'SKE'
p4327
g1
sS'HBU'
p4328
g1
sS'SKG'
p4329
g1
sS'SKF'
p4330
g1
sS'SKA'
p4331
g1
sS'SKC'
p4332
g1
sS'HBT'
p4333
g1
sS'SKM'
p4334
g1
sS'SKL'
p4335
g1
sS'SKO'
p4336
g1
sS'SKN'
p4337
g1
sS'SKI'
p4338
S'RU'
p4339
sS'SKH'
p4340
g1
sS'GES'
p4341
S'GP'
p4342
sS'MFA'
p4343
g1
sS'MFC'
p4344
g1
sS'TCX'
p4345
S'MT'
p4346
sS'TCY'
p4347
g1
sS'TCV'
p4348
S'VR'
p4349
sS'TCW'
p4350
S'FQ'
p4351
sS'TCT'
p4352
g1
sS'TCU'
p4353
g1
sS'TCR'
p4354
g1
sS'TCP'
p4355
g1
sS'TCN'
p4356
g1
sS'TCO'
p4357
g1
sS'MFR'
p4358
g1
sS'TCM'
p4359
g1
sS'MFT'
p4360
g1
sS'GEE'
p4361
g1
sS'GED'
p4362
g1
sS'TCF'
p4363
S'S5'
p4364
sS'TCG'
p4365
S'T2'
p4366
sS'TCD'
p4367
g1
sS'TCE'
p4368
g1
sS'TCB'
p4369
g1
sS'GEN'
p4370
g1
sS'TCA'
p4371
g1
sS'JGO'
p4372
S'SG'
p4373
sS'DDS'
p4374
g1
sS'JGD'
p4375
g1
sS'DDA'
p4376
g1
sS'TUD'
p4377
g1
sS'GHI'
p4378
g1
sS'QEA'
p4379
g1
sS'KDA'
p4380
g1
sS'KDC'
p4381
g1
sS'KDZ'
p4382
g1
sS'KDR'
p4383
g1
sS'HET'
p4384
g1
sS'HER'
p4385
S'UD'
p4386
sS'NDA'
p4387
g1
sS'NDC'
p4388
S'LF'
p4389
sS'HEX'
p4390
g1
sS'NDF'
p4391
g1
sS'HED'
p4392
g1
sS'HEA'
p4393
g1
sS'HEB'
p4394
g1
sS'SOO'
p4395
g1
sS'HEL'
p4396
g1
sS'HEM'
p4397
g1
sS'NDS'
p4398
g1
sS'NDU'
p4399
g1
sS'HEI'
p4400
g1
sS'HEJ'
p4401
S'T4'
p4402
sS'BJC'
p4403
g1
sS'BJA'
p4404
g1
sS'BJK'
p4405
g1
sS'BJT'
p4406
g1
sS'BJS'
p4407
g1
sS'SON'
p4408
g1
sS'PJA'
p4409
g1
sS'OWL'
p4410
g1
sS'LVT'
p4411
g1
sS'LVR'
p4412
g1
sS'LVD'
p4413
g1
sS'LVG'
p4414
S'LM'
p4415
sS'LVB'
p4416
g1
sS'LVN'
p4417
g1
sS'MYS'
p4418
g1
sS'MYT'
p4419
S'VZ'
p4420
sS'MYW'
p4421
g1
sS'MYI'
p4422
g1
sS'MYO'
p4423
g1
sS'MYA'
p4424
g1
sS'MYD'
p4425
S'MW'
p4426
sS'CQH'
p4427
S'9c'
p4428
sS'CQC'
p4429
g1
sS'ADX'
p4430
g1
sS'LKN'
p4431
S'IK'
p4432
sS'XNS'
p4433
g1
sS'XNR'
p4434
g1
sS'XNT'
p4435
g1
sS'XNV'
p4436
g1
sS'XNA'
p4437
g1
sS'XNC'
p4438
g1
sS'LKD'
p4439
g1
sS'FLR'
p4440
g1
sS'GNZ'
p4441
g1
sS'VHT'
p4442
g1
sS'FLN'
p4443
g1
sS'VHM'
p4444
g1
sS'VHA'
p4445
g1
sS'TXO'
p4446
g1
sS'TXN'
p4447
g1
sS'TXM'
p4448
g1
sS'TXL'
p4449
g1
sS'TXI'
p4450
g1
sS'FLE'
p4451
g1
sS'TXE'
p4452
g1
sS'TXD'
p4453
g1
sS'TXC'
p4454
S'AL'
p4455
sS'TXB'
p4456
g1
sS'TXA'
p4457
g1
sS'FLD'
p4458
g1
sS'TXZ'
p4459
g1
sS'TXX'
p4460
g1
sS'TXV'
p4461
g1
sS'TXU'
p4462
g1
sS'TXT'
p4463
g1
sS'TXS'
p4464
g1
sS'TXR'
p4465
g1
sS'PAP'
p4466
g1
sS'PAT'
p4467
g1
sS'PAV'
p4468
g1
sS'PAX'
p4469
g1
sS'WRF'
p4470
S'8V'
p4471
sS'HZA'
p4472
S'BN'
p4473
sS'WRA'
p4474
g1
sS'HZL'
p4475
g1
sS'HZT'
p4476
S'8C'
p4477
sS'WRT'
p4478
g1
sS'WRR'
p4479
g1
sS'HZX'
p4480
g1
sS'ALD'
p4481
g1
sS'NTR'
p4482
g1
sS'PAG'
p4483
g1
sS'NTT'
p4484
g1
sS'ALZ'
p4485
g1
sS'IUS'
p4486
g1
sS'FTP'
p4487
g1
sS'FTS'
p4488
g1
sS'FTR'
p4489
g1
sS'FTY'
p4490
g1
sS'GNF'
p4491
S'G7'
p4492
sS'FTA'
p4493
S'2F'
p4494
sS'ALV'
p4495
S'VH'
p4496
sS'FTC'
p4497
g1
sS'FTE'
p4498
g1
sS'FTM'
p4499
g1
sS'ALT'
p4500
g1
sS'ALU'
p4501
g1
sS'NTE'
p4502
g1
sS'ALS'
p4503
g1
sS'ALP'
p4504
g1
sS'SMZ'
p4505
g1
sS'SMY'
p4506
S'ZS'
p4507
sS'SMX'
p4508
g1
sS'SMT'
p4509
g1
sS'SMS'
p4510
g1
sS'SMR'
p4511
g1
sS'SMQ'
p4512
g1
sS'SMM'
p4513
g1
sS'SML'
p4514
g1
sS'SMK'
p4515
g1
sS'SMJ'
p4516
S'Z3'
p4517
sS'SMI'
p4518
g1
sS'SMH'
p4519
g1
sS'SMG'
p4520
g1
sS'SMF'
p4521
g1
sS'SME'
p4522
g1
sS'SMD'
p4523
g1
sS'SMC'
p4524
g1
sS'SMA'
p4525
g1
sS'MDJ'
p4526
g1
sS'MDH'
p4527
g1
sS'GGV'
p4528
g1
sS'MDN'
p4529
g1
sS'MDL'
p4530
S'RI'
p4531
sS'MDM'
p4532
g1
sS'MDB'
p4533
g1
sS'MDC'
p4534
g1
sS'MDA'
p4535
S'AE'
p4536
sS'MDF'
p4537
g1
sS'MDG'
p4538
S'MD'
p4539
sS'MDE'
p4540
g1
sS'GGE'
p4541
g1
sS'MDX'
p4542
g1
sS'MDY'
p4543
g1
sS'GGA'
p4544
g1
sS'GGC'
p4545
S'GG'
p4546
sS'MDR'
p4547
g1
sS'MDS'
p4548
g1
sS'GGN'
p4549
S'ZX'
p4550
sS'MDV'
p4551
S'2M'
p4552
sS'MDW'
p4553
S'ML'
p4554
sS'MDT'
p4555
g1
sS'JES'
p4556
g1
sS'JEP'
p4557
g1
sS'JEV'
p4558
S'N6'
p4559
sS'JET'
p4560
S'IV'
p4561
sS'JEX'
p4562
S'JC'
p4563
sS'DFS'
p4564
g1
sS'JEC'
p4565
S'JX'
p4566
sS'JEA'
p4567
g1
sS'JEF'
p4568
g1
sS'JED'
p4569
g1
sS'JEE'
p4570
g1
sS'JEJ'
p4571
g1
sS'JEK'
p4572
g1
sS'JEI'
p4573
g1
sS'DFA'
p4574
g1
sS'JEL'
p4575
g1
sS'JEM'
p4576
g1
sS'TOC'
p4577
g1
sS'KFT'
p4578
g1
sS'KFR'
p4579
S'IT'
p4580
sS'KFS'
p4581
S'K9'
p4582
sS'QKC'
p4583
g1
sS'KFC'
p4584
g1
sS'KFA'
p4585
g1
sS'KFK'
p4586
g1
sS'ABA'
p4587
g1
sS'ABB'
p4588
g1
sS'ABC'
p4589
S'CR'
p4590
sS'ABD'
p4591
S'CC'
p4592
sS'ABE'
p4593
g1
sS'ABF'
p4594
g1
sS'ABG'
p4595
g1
sS'ABH'
p4596
g1
sS'ABI'
p4597
g1
sS'ABJ'
p4598
g1
sS'ABK'
p4599
g1
sS'HGR'
p4600
g1
sS'ABM'
p4601
g1
sS'ABN'
p4602
g1
sS'ABO'
p4603
g1
sS'ABP'
p4604
g1
sS'ABQ'
p4605
S'ED'
p4606
sS'NZA'
p4607
g1
sS'ABS'
p4608
S'9T'
p4609
sS'ABT'
p4610
g1
sS'ABU'
p4611
g1
sS'ABV'
p4612
S'O4'
p4613
sS'ABW'
p4614
S'RU'
p4615
sS'ABX'
p4616
S'GB'
p4617
sS'ABY'
p4618
S'G9'
p4619
sS'ABZ'
p4620
g1
sS'NZM'
p4621
S'NM'
p4622
sS'HGA'
p4623
g1
sS'BHI'
p4624
g1
sS'BHL'
p4625
g1
sS'BHO'
p4626
g1
sS'BHN'
p4627
g1
sS'BHA'
p4628
g1
sS'BHC'
p4629
g1
sS'BHY'
p4630
g1
sS'BHP'
p4631
S'4T'
p4632
sS'BHS'
p4633
S'UP'
p4634
sS'BHR'
p4635
g1
sS'BHT'
p4636
g1
sS'BHV'
p4637
g1
sS'HIA'
p4638
g1
sS'EYE'
p4639
g1
sS'LPV'
p4640
S'A6'
p4641
sS'HIG'
p4642
g1
sS'LPR'
p4643
S'MJ'
p4644
sS'LPN'
p4645
S'L7'
p4646
sS'LPL'
p4647
g1
sS'LPE'
p4648
S'LP'
p4649
sS'LPD'
p4650
g1
sS'LPC'
p4651
g1
sS'LPA'
p4652
g1
sS'AFK'
p4653
g1
sS'CSM'
p4654
g1
sS'CSL'
p4655
g1
sS'CSO'
p4656
g1
sS'CSN'
p4657
S'CZ'
p4658
sS'CSI'
p4659
g1
sS'CSH'
p4660
S'FM'
p4661
sS'CSK'
p4662
g1
sS'CSJ'
p4663
g1
sS'CSE'
p4664
g1
sS'CSD'
p4665
g1
sS'CSF'
p4666
g1
sS'CSA'
p4667
S'OK'
p4668
sS'CSC'
p4669
S'3U'
p4670
sS'CSY'
p4671
g1
sS'CSZ'
p4672
S'ZH'
p4673
sS'CSU'
p4674
S'S8'
p4675
sS'CST'
p4676
S'BX'
p4677
sS'CSW'
p4678
g1
sS'CSV'
p4679
g1
sS'CSQ'
p4680
S'II'
p4681
sS'CSP'
p4682
g1
sS'AER'
p4683
S'KO'
p4684
sS'GBB'
p4685
g1
sS'AEV'
p4686
g1
sS'AEY'
p4687
S'I9'
p4688
sS'AEX'
p4689
g1
sS'GBT'
p4690
g1
sS'AEE'
p4691
S'A3'
p4692
sS'GBS'
p4693
g1
sS'NMD'
p4694
g1
sS'ARI'
p4695
g1
sS'GBX'
p4696
g1
sS'VNG'
p4697
g1
sS'VNE'
p4698
g1
sS'TZU'
p4699
g1
sS'TZT'
p4700
g1
sS'VNA'
p4701
g1
sS'VNK'
p4702
g1
sS'TZA'
p4703
g1
sS'VNT'
p4704
g1
sS'TZE'
p4705
g1
sS'VNR'
p4706
S'3W'
p4707
sS'TZK'
p4708
g1
sS'VNZ'
p4709
S'L6'
p4710
sS'RGP'
p4711
g1
sS'RAF'
p4712
g1
sS'RAE'
p4713
S'YS'
p4714
sS'FGY'
p4715
g1
sS'RAN'
p4716
g1
sS'UMS'
p4717
g1
sS'RAJ'
p4718
g1
sS'UMA'
p4719
g1
sS'UMB'
p4720
g1
sS'FGS'
p4721
g1
sS'UMK'
p4722
S'2N'
p4723
sS'OLA'
p4724
S'OJ'
p4725
sS'OLC'
p4726
g1
sS'OLE'
p4727
g1
sS'IKY'
p4728
g1
sS'LBC'
p4729
S'LV'
p4730
sS'OLO'
p4731
g1
sS'IKA'
p4732
S'GI'
p4733
sS'OLT'
p4734
S'OL'
p4735
sS'OLV'
p4736
g1
sS'USN'
p4737
g1
sS'OLX'
p4738
g1
sS'OLY'
p4739
g1
sS'IKN'
p4740
g1
sS'IKM'
p4741
g1
sS'RAS'
p4742
g1
sS'IQQ'
p4743
g1
sS'USJ'
p4744
g1
sS'MBL'
p4745
g1
sS'SOC'
p4746
g1
sS'SOB'
p4747
g1
sS'SOE'
p4748
g1
sS'MBI'
p4749
g1
sS'SOG'
p4750
g1
sS'GAX'
p4751
g1
sS'SOI'
p4752
g1
sS'SOH'
p4753
g1
sS'GAU'
p4754
g1
sS'GAT'
p4755
g1
sS'SOM'
p4756
g1
sS'GAR'
p4757
g1
sS'GAQ'
p4758
g1
sS'GAP'
p4759
S'2P'
p4760
sS'GAO'
p4761
S'DC'
p4762
sS'SOP'
p4763
g1
sS'GAM'
p4764
g1
sS'SOR'
p4765
g1
sS'SOU'
p4766
g1
sS'SOT'
p4767
g1
sS'SOW'
p4768
g1
sS'SOV'
p4769
S'6W'
p4770
sS'SOY'
p4771
g1
sS'SOX'
p4772
g1
sS'MBV'
p4773
g1
sS'GAD'
p4774
g1
sS'GAB'
p4775
g1
sS'MBR'
p4776
g1
sS'MBS'
p4777
g1
sS'JCT'
p4778
g1
sS'JCR'
p4779
g1
sS'JCS'
p4780
S'0J'
p4781
sS'JCX'
p4782
g1
sS'JCF'
p4783
g1
sS'JCB'
p4784
g1
sS'JCC'
p4785
g1
sS'JCM'
p4786
g1
sS'JCH'
p4787
g1
sS'JCI'
p4788
g1
sS'JCK'
p4789
g1
sS'KMF'
p4790
S'RQ'
p4791
sS'KMC'
p4792
g1
sS'KHX'
p4793
g1
sS'KHY'
p4794
g1
sS'KHP'
p4795
g1
sS'QID'
p4796
g1
sS'KHR'
p4797
g1
sS'KHH'
p4798
g1
sS'KHM'
p4799
g1
sS'KHO'
p4800
g1
sS'KHA'
p4801
g1
sS'KHB'
p4802
S'H8'
p4803
sS'KHC'
p4804
g1
sS'KHE'
p4805
g1
sS'NXT'
p4806
g1
sS'NXS'
p4807
g1
sS'NXF'
p4808
g1
sS'NXA'
p4809
g1
sS'BVR'
p4810
g1
sS'BVV'
p4811
g1
sS'BVU'
p4812
g1
sS'KMV'
p4813
S'8J'
p4814
sS'BVC'
p4815
g1
sS'BVA'
p4816
g1
sS'BVN'
p4817
g1
sS'KMP'
p4818
S'E2'
p4819
sS'OSY'
p4820
S'1L'
p4821
sS'OSS'
p4822
g1
sS'OST'
p4823
g1
sS'OSW'
p4824
g1
sS'OSH'
p4825
g1
sS'OSL'
p4826
S'SO'
p4827
sS'OSO'
p4828
g1
sS'OSN'
p4829
g1
sS'OSA'
p4830
g1
sS'EWA'
p4831
g1
sS'EWG'
p4832
S'EW'
p4833
sS'EWS'
p4834
g1
sS'EWW'
p4835
g1
sS'LRA'
p4836
g1
sS'LRC'
p4837
S'LR'
p4838
sS'LRB'
p4839
g1
sS'LRD'
p4840
g1
sS'LRO'
p4841
g1
sS'LRS'
p4842
g1
sS'LRR'
p4843
g1
sS'LRT'
p4844
g1
sS'LRW'
p4845
g1
sS'TVL'
p4846
g1
sS'IFS'
p4847
g1
sS'VRA'
p4848
g1
sS'TVH'
p4849
g1
sS'CUT'
p4850
g1
sS'OCE'
p4851
g1
sS'CUB'
p4852
S'CU'
p4853
sS'CUA'
p4854
S'KN'
p4855
sS'CUO'
p4856
g1
sS'CUK'
p4857
g1
sS'CUI'
p4858
g1
sS'TVA'
p4859
g1
sS'PKR'
p4860
g1
sS'PKP'
p4861
g1
sS'PKW'
p4862
g1
sS'XBO'
p4863
g1
sS'XBG'
p4864
g1
sS'PKA'
p4865
g1
sS'VLI'
p4866
S'V5'
p4867
sS'VLK'
p4868
S'XF'
p4869
sS'VLM'
p4870
S'VG'
p4871
sS'VLL'
p4872
g1
sS'VLO'
p4873
S'LC'
p4874
sS'VLN'
p4875
g1
sS'TTS'
p4876
g1
sS'TTR'
p4877
g1
sS'TTP'
p4878
g1
sS'VLE'
p4879
S'VE'
p4880
sS'VLG'
p4881
S'VY'
p4882
sS'VLF'
p4883
g1
sS'VLX'
p4884
g1
sS'TTH'
p4885
g1
sS'TTM'
p4886
g1
sS'TTL'
p4887
g1
sS'TTC'
p4888
g1
sS'TTB'
p4889
g1
sS'VLS'
p4890
g1
sS'VLR'
p4891
g1
sS'VLU'
p4892
S'VF'
p4893
sS'TTF'
p4894
g1
sS'TTE'
p4895
g1
sS'VLV'
p4896
g1
sS'NOW'
p4897
g1
sS'UKW'
p4898
S'5V'
p4899
sS'UKU'
p4900
g1
sS'UKS'
p4901
S'6Z'
p4902
sS'UKR'
p4903
S'6U'
p4904
sS'UKP'
p4905
g1
sS'UKN'
p4906
g1
sS'UKM'
p4907
S'UF'
p4908
sS'UKL'
p4909
g1
sS'UKI'
p4910
g1
sS'DJU'
p4911
g1
sS'UKA'
p4912
g1
sS'DJT'
p4913
g1
sS'ONM'
p4914
g1
sS'ONG'
p4915
g1
sS'ONE'
p4916
S'O6'
p4917
sS'IIG'
p4918
g1
sS'ONR'
p4919
g1
sS'IIL'
p4920
g1
sS'IIN'
p4921
S'H4'
p4922
sS'ONT'
p4923
g1
sS'FXY'
p4924
g1
sS'RZA'
p4925
g1
sS'RZO'
p4926
S'S4'
p4927
sS'RZN'
p4928
g1
sS'RZL'
p4929
g1
sS'FXR'
p4930
g1
sS'FXL'
p4931
g1
sS'FXI'
p4932
S'NY'
p4933
sS'RZR'
p4934
g1
sS'FXF'
p4935
g1
sS'FXA'
p4936
g1
sS'RZZ'
p4937
g1
sS'FXC'
p4938
g1
sS'SAI'
p4939
S'NL'
p4940
sS'SAH'
p4941
g1
sS'SAO'
p4942
g1
sS'SAN'
p4943
g1
sS'SAM'
p4944
S'MM'
p4945
sS'SAC'
p4946
g1
sS'SAB'
p4947
g1
sS'SAA'
p4948
S'SA'
p4949
sS'SAG'
p4950
g1
sS'SAF'
p4951
g1
sS'SAZ'
p4952
g1
sS'SAY'
p4953
g1
sS'SAX'
p4954
g1
sS'SAS'
p4955
S'SK'
p4956
sS'SAQ'
p4957
g1
sS'SAP'
p4958
g1
sS'SAW'
p4959
g1
sS'SAV'
p4960
g1
sS'SAU'
p4961
g1
sS'SAT'
p4962
S'SP'
p4963
sS'CHA'
p4964
g1
sS'CHC'
p4965
g1
sS'CHD'
p4966
g1
sS'CHE'
p4967
g1
sS'CHF'
p4968
S'X7'
p4969
sS'CHG'
p4970
g1
sS'JAV'
p4971
S'R5'
p4972
sS'JAW'
p4973
g1
sS'CHJ'
p4974
g1
sS'CHK'
p4975
S'OP'
p4976
sS'JAR'
p4977
g1
sS'CHM'
p4978
g1
sS'CHN'
p4979
g1
sS'CHO'
p4980
g1
sS'CHP'
p4981
S'6A'
p4982
sS'CHQ'
p4983
S'RP'
p4984
sS'CHR'
p4985
g1
sS'CHS'
p4986
g1
sS'CHU'
p4987
g1
sS'CHV'
p4988
g1
sS'CHW'
p4989
g1
sS'JAF'
p4990
S'JF'
p4991
sS'JAG'
p4992
g1
sS'JAD'
p4993
g1
sS'JAE'
p4994
g1
sS'JAB'
p4995
S'W9'
p4996
sS'JAC'
p4997
g1
sS'JAA'
p4998
S'EG'
p4999
sS'DBK'
p5000
g1
sS'DBJ'
p5001
g1
sS'DBA'
p5002
g1
sS'DBD'
p5003
g1
sS'DBR'
p5004
g1
sS'AFL'
p5005
S'SU'
p5006
sS'AFM'
p5007
g1
sS'AFN'
p5008
g1
sS'AFO'
p5009
g1
sS'AFH'
p5010
g1
sS'AFI'
p5011
S'RV'
p5012
sS'AFJ'
p5013
S'Y2'
p5014
sS'GCF'
p5015
g1
sS'AFD'
p5016
g1
sS'AFE'
p5017
g1
sS'GCK'
p5018
g1
sS'AFG'
p5019
S'FG'
p5020
sS'AFA'
p5021
g1
sS'AFB'
p5022
S'WK'
p5023
sS'AFC'
p5024
g1
sS'GCS'
p5025
g1
sS'AFX'
p5026
S'5Z'
p5027
sS'AFY'
p5028
g1
sS'AFZ'
p5029
g1
sS'AFT'
p5030
g1
sS'AFU'
p5031
S'Q9'
p5032
sS'AFV'
p5033
g1
sS'AFW'
p5034
g1
sS'AFP'
p5035
g1
sS'AFQ'
p5036
g1
sS'AFR'
p5037
S'AF'
p5038
sS'AFS'
p5039
g1
sS'BTU'
p5040
g1
sS'BTT'
p5041
g1
sS'BTV'
p5042
S'Y6'
p5043
sS'BTP'
p5044
g1
sS'BTS'
p5045
g1
sS'BTR'
p5046
g1
sS'BTZ'
p5047
S'L9'
p5048
sS'BTA'
p5049
S'XE'
p5050
sS'BTC'
p5051
S'V9'
p5052
sS'BTL'
p5053
g1
sS'BTI'
p5054
S'BT'
p5055
sS'BTH'
p5056
g1
sS'BTK'
p5057
g1
sS'ASC'
p5058
g1
sS'NUL'
p5059
g1
sS'KJC'
p5060
S'7B'
p5061
sS'EUK'
p5062
g1
sS'EUJ'
p5063
S'VE'
p5064
sS'EUG'
p5065
g1
sS'EUC'
p5066
g1
sS'EUY'
p5067
g1
sS'EUU'
p5068
g1
sS'EUT'
p5069
g1
sS'EUW'
p5070
g1
sS'EUP'
p5071
g1
sS'CWY'
p5072
g1
sS'CWX'
p5073
g1
sS'CWZ'
p5074
g1
sS'CWP'
p5075
g1
sS'CWU'
p5076
g1
sS'CWT'
p5077
g1
sS'CWW'
p5078
g1
sS'CWH'
p5079
g1
sS'CWK'
p5080
S'KR'
p5081
sS'CWM'
p5082
S'CW'
p5083
sS'CWL'
p5084
g1
sS'CWN'
p5085
g1
sS'CWA'
p5086
S'W2'
p5087
sS'CWC'
p5088
S'WE'
p5089
sS'CWE'
p5090
g1
sS'CWD'
p5091
g1
sS'FGL'
p5092
g1
sS'WEC'
p5093
g1
sS'WEB'
p5094
S'WH'
p5095
sS'WEA'
p5096
g1
sS'WEL'
p5097
g1
sS'WES'
p5098
g1
sS'WEW'
p5099
g1
sS'WEV'
p5100
g1
sS'WEX'
p5101
g1
sS'HCV'
p5102
g1
sS'BLX'
p5103
S'6B'
p5104
sS'XDD'
p5105
g1
sS'XDA'
p5106
g1
sS'XDT'
p5107
g1
sS'XDS'
p5108
g1
sS'XDY'
p5109
g1
sS'BLV'
p5110
S'B3'
p5111
sS'BLM'
p5112
g1
sS'BLN'
p5113
g1
sS'NFS'
p5114
g1
sS'BLH'
p5115
g1
sS'VRS'
p5116
g1
sS'VRT'
p5117
g1
sS'TVS'
p5118
S'QS'
p5119
sS'TVR'
p5120
S'T6'
p5121
sS'VRC'
p5122
g1
sS'VRB'
p5123
g1
sS'TVO'
p5124
g1
sS'TVI'
p5125
g1
sS'BLC'
p5126
g1
sS'VRE'
p5127
g1
sS'VRD'
p5128
S'VX'
p5129
sS'VRI'
p5130
g1
sS'VRO'
p5131
g1
sS'VRN'
p5132
S'RG'
p5133
sS'VRL'
p5134
g1
sS'JZA'
p5135
S'QK'
p5136
sS'YRG'
p5137
g1
sS'JZR'
p5138
S'J9'
p5139
sS'TKC'
p5140
g1
sS'QRT'
p5141
g1
sS'HPS'
p5142
g1
sS'HPR'
p5143
g1
sS'HPJ'
p5144
g1
sS'HPO'
p5145
g1
sS'HPL'
p5146
g1
sS'HPA'
p5147
S'HP'
p5148
sS'OHK'
p5149
S'O8'
p5150
sS'IOS'
p5151
g1
sS'IOM'
p5152
g1
sS'OHY'
p5153
S'8Q'
p5154
sS'IOA'
p5155
g1
sS'RXA'
p5156
S'ZL'
p5157
sS'RXP'
p5158
g1
sS'RXT'
p5159
g1
sS'SCM'
p5160
g1
sS'MNY'
p5161
g1
sS'SCO'
p5162
g1
sS'SCN'
p5163
g1
sS'SCI'
p5164
g1
sS'SCH'
p5165
S'AW'
p5166
sS'SCK'
p5167
g1
sS'SCJ'
p5168
g1
sS'SCE'
p5169
g1
sS'SCD'
p5170
g1
sS'MNR'
p5171
g1
sS'MNS'
p5172
g1
sS'MNT'
p5173
g1
sS'MNV'
p5174
g1
sS'SCB'
p5175
g1
sS'MNH'
p5176
g1
sS'MNI'
p5177
g1
sS'MNJ'
p5178
S'IM'
p5179
sS'MNL'
p5180
g1
sS'SCX'
p5181
S'SY'
p5182
sS'MNO'
p5183
S'JE'
p5184
sS'SCU'
p5185
g1
sS'MNA'
p5186
S'MZ'
p5187
sS'MNB'
p5188
S'MB'
p5189
sS'MNC'
p5190
g1
sS'SCQ'
p5191
g1
sS'MNE'
p5192
g1
sS'SCS'
p5193
g1
sS'MNG'
p5194
g1
sS'PBU'
p5195
S'8Y'
p5196
sS'PBT'
p5197
g1
sS'PBW'
p5198
g1
sS'CJI'
p5199
g1
sS'CJC'
p5200
S'9L'
p5201
sS'CJA'
p5202
S'C6'
p5203
sS'PBY'
p5204
g1
sS'CJG'
p5205
g1
sS'CJE'
p5206
g1
sS'PBA'
p5207
S'9Q'
p5208
sS'PBB'
p5209
g1
sS'CJR'
p5210
g1
sS'CJS'
p5211
g1
sS'PBN'
p5212
S'DJ'
p5213
sS'CJT'
p5214
S'W8'
p5215
sS'ADV'
p5216
g1
sS'ADW'
p5217
g1
sS'ADT'
p5218
g1
sS'ADU'
p5219
g1
sS'ADR'
p5220
S'JP'
p5221
sS'ADS'
p5222
g1
sS'GMM'
p5223
g1
sS'ADQ'
p5224
g1
sS'GMC'
p5225
g1
sS'GMA'
p5226
g1
sS'ADZ'
p5227
g1
sS'GME'
p5228
g1
sS'ADY'
p5229
g1
sS'ADF'
p5230
g1
sS'ADG'
p5231
g1
sS'ADD'
p5232
g1
sS'ADE'
p5233
g1
sS'ADB'
p5234
g1
sS'ADC'
p5235
g1
sS'ADA'
p5236
g1
sS'GMS'
p5237
g1
sS'ADO'
p5238
S'HD'
p5239
sS'ADL'
p5240
g1
sS'ADM'
p5241
S'YU'
p5242
sS'ADJ'
p5243
g1
sS'ADK'
p5244
S'Z7'
p5245
sS'ADH'
p5246
S'AP'
p5247
sS'ADI'
p5248
g1
sS'BRZ'
p5249
S'E5'
p5250
sS'BRY'
p5251
g1
sS'BRX'
p5252
g1
sS'BRW'
p5253
g1
sS'BRV'
p5254
S'K6'
p5255
sS'BRU'
p5256
S'B2'
p5257
sS'BRT'
p5258
g1
sS'BRS'
p5259
g1
sS'BRR'
p5260
g1
sS'BRQ'
p5261
S'UZ'
p5262
sS'BRP'
p5263
g1
sS'BRO'
p5264
g1
sS'BRN'
p5265
g1
sS'BRM'
p5266
g1
sS'BRL'
p5267
g1
sS'BRK'
p5268
g1
sS'BRG'
p5269
S'8E'
p5270
sS'BRF'
p5271
g1
sS'BRE'
p5272
g1
sS'BRD'
p5273
g1
sS'BRB'
p5274
S'7R'
p5275
sS'KLD'
p5276
g1
sS'MNX'
p5277
g1
sS'ESU'
p5278
g1
sS'EST'
p5279
g1
sS'ESS'
p5280
S'E0'
p5281
sS'KLA'
p5282
S'TT'
p5283
sS'KLB'
p5284
g1
sS'SCL'
p5285
g1
sS'KLM'
p5286
S'KL'
p5287
sS'KLO'
p5288
g1
sS'KLH'
p5289
g1
sS'ESZ'
p5290
g1
sS'ESX'
p5291
g1
sS'ESF'
p5292
S'E7'
p5293
sS'ESE'
p5294
g1
sS'ESC'
p5295
g1
sS'ESB'
p5296
g1
sS'KLR'
p5297
g1
sS'ESO'
p5298
g1
sS'ESN'
p5299
g1
sS'ESL'
p5300
S'P7'
p5301
sS'KLX'
p5302
g1
sS'ESJ'
p5303
g1
sS'KLZ'
p5304
g1
sS'SCF'
p5305
g1
sS'SCA'
p5306
g1
sS'SCC'
p5307
g1
sS'BGI'
p5308
g1
sS'MPI'
p5309
g1
sS'SCT'
p5310
g1
sS'SCW'
p5311
S'TF'
p5312
sS'SCV'
p5313
g1
sS'SCP'
p5314
g1
sS'SCR'
p5315
g1
sS'WGA'
p5316
g1
sS'WGT'
p5317
g1
sS'WGP'
p5318
g1
sS'WGS'
p5319
g1
sS'XFA'
p5320
S'D7'
p5321
sS'XFX'
p5322
g1
sS'XFS'
p5323
g1
sS'VPV'
p5324
g1
sS'VPA'
p5325
g1
sS'VPB'
p5326
g1
sS'VXG'
p5327
S'G2'
p5328
sS'THT'
p5329
S'TN'
p5330
sS'JXT'
p5331
g1
sS'JXX'
p5332
S'GX'
p5333
sS'GPA'
p5334
g1
sS'JXA'
p5335
g1
sS'VXX'
p5336
g1
sS'THB'
p5337
g1
sS'GPR'
p5338
g1
sS'TPG'
p5339
g1
sS'TPF'
p5340
g1
sS'TPD'
p5341
g1
sS'TPC'
p5342
S'TY'
p5343
sS'TPB'
p5344
g1
sS'TPA'
p5345
S'QT'
p5346
sS'HRZ'
p5347
g1
sS'TPO'
p5348
g1
sS'HRT'
p5349
g1
sS'TPM'
p5350
g1
sS'TPL'
p5351
g1
sS'TPK'
p5352
g1
sS'WZP'
p5353
S'3J'
p5354
sS'TPV'
p5355
g1
sS'TPU'
p5356
g1
sS'TPT'
p5357
g1
sS'TPS'
p5358
g1
sS'HRH'
p5359
S'WR'
p5360
sS'TPP'
p5361
g1
sS'NIN'
p5362
g1
sS'HRA'
p5363
g1
sS'TPZ'
p5364
g1
sS'TPY'
p5365
g1
sS'HRB'
p5366
g1
sS'NIE'
p5367
g1
sS'UGN'
p5368
g1
sS'UGL'
p5369
g1
sS'UGC'
p5370
g1
sS'UGA'
p5371
g1
sS'OJY'
p5372
g1
sS'UGP'
p5373
g1
sS'RFS'
p5374
g1
sS'RFR'
p5375
S'RR'
p5376
sS'ENC'
p5377
g1
sS'END'
p5378
g1
sS'RFT'
p5379
g1
sS'ENI'
p5380
g1
sS'RFX'
p5381
g1
sS'RFC'
p5382
g1
sS'ENR'
p5383
g1
sS'ENS'
p5384
g1
sS'ENT'
p5385
g1
sS'RFF'
p5386
g1
sS'ENV'
p5387
g1
sS'ENW'
p5388
g1
sS'RFI'
p5389
g1
sS'RFL'
p5390
g1
sS'SEV'
p5391
g1
sS'SEU'
p5392
S'SE'
p5393
sS'SET'
p5394
S'EH'
p5395
sS'SES'
p5396
g1
sS'SER'
p5397
S'JR'
p5398
sS'SEQ'
p5399
S'I6'
p5400
sS'SEY'
p5401
S'HM'
p5402
sS'SEG'
p5403
g1
sS'SEF'
p5404
g1
sS'SEE'
p5405
g1
sS'SED'
p5406
g1
sS'SEC'
p5407
g1
sS'SEB'
p5408
g1
sS'SEA'
p5409
g1
sS'SEO'
p5410
g1
sS'SEN'
p5411
S'UG'
p5412
sS'SEM'
p5413
g1
sS'SEL'
p5414
g1
sS'SEK'
p5415
g1
sS'SEJ'
p5416
S'SG'
p5417
sS'SEI'
p5418
g1
sS'SEH'
p5419
g1
sS'IMA'
p5420
g1
sS'CLM'
p5421
g1
sS'CLN'
p5422
g1
sS'IME'
p5423
g1
sS'CLI'
p5424
S'XG'
p5425
sS'IMG'
p5426
g1
sS'CLK'
p5427
g1
sS'CLD'
p5428
g1
sS'CLE'
p5429
g1
sS'CLF'
p5430
g1
sS'CLG'
p5431
g1
sS'CLA'
p5432
g1
sS'CLB'
p5433
g1
sS'IMN'
p5434
g1
sS'IMR'
p5435
g1
sS'CLX'
p5436
S'CV'
p5437
sS'IMT'
p5438
g1
sS'PDI'
p5439
g1
sS'PDG'
p5440
g1
sS'PDF'
p5441
g1
sS'CLV'
p5442
g1
sS'PDD'
p5443
g1
sS'CLP'
p5444
g1
sS'PDA'
p5445
g1
sS'CLS'
p5446
g1
sS'BPA'
p5447
S'BV'
p5448
sS'GMJ'
p5449
g1
sS'BPK'
p5450
g1
sS'GMI'
p5451
S'ST'
p5452
sS'BPO'
p5453
g1
sS'BPS'
p5454
g1
sS'GMH'
p5455
g1
sS'BPT'
p5456
g1
sS'BPX'
p5457
g1
sS'ADP'
p5458
g1
sS'GML'
p5459
g1
sS'GOM'
p5460
g1
sS'MLC'
p5461
g1
sS'MLA'
p5462
S'Q5'
p5463
sS'GOI'
p5464
g1
sS'MLG'
p5465
g1
sS'MLD'
p5466
S'9U'
p5467
sS'MLE'
p5468
g1
sS'AJP'
p5469
g1
sS'GMG'
p5470
S'Z5'
p5471
sS'MLH'
p5472
g1
sS'MLI'
p5473
S'L9'
p5474
sS'GOA'
p5475
g1
sS'MLO'
p5476
g1
sS'MLL'
p5477
g1
sS'GOB'
p5478
g1
sS'AJH'
p5479
g1
sS'MLS'
p5480
g1
sS'AJJ'
p5481
g1
sS'AJK'
p5482
g1
sS'AJM'
p5483
S'JM'
p5484
sS'AJO'
p5485
g1
sS'GOT'
p5486
g1
sS'GOW'
p5487
S'G8'
p5488
sS'AJC'
p5489
g1
sS'AJE'
p5490
g1
sS'GOS'
p5491
g1
sS'GOR'
p5492
g1
sS'NRK'
p5493
g1
sS'NRO'
p5494
g1
sS'NRN'
p5495
g1
sS'NRL'
p5496
g1
sS'NRC'
p5497
g1
sS'NRG'
p5498
g1
sS'NRE'
p5499
g1
sS'NRD'
p5500
S'6N'
p5501
sS'NRZ'
p5502
g1
sS'NRX'
p5503
g1
sS'NRS'
p5504
g1
sS'NRR'
p5505
g1
sS'NRP'
p5506
g1
sS'NRW'
p5507
g1
sS'NRV'
p5508
g1
sS'NRT'
p5509
g1
sS'ADN'
p5510
g1
sS'GMT'
p5511
g1
sS'KNM'
p5512
g1
sS'KNI'
p5513
S'KD'
p5514
sS'KNG'
p5515
g1
sS'EQT'
p5516
g1
sS'KNA'
p5517
g1
sS'EQL'
p5518
S'KY'
p5519
sS'KNX'
p5520
g1
sS'EQC'
p5521
g1
sS'KNS'
p5522
g1
sS'LXR'
p5523
S'LK'
p5524
sS'LXP'
p5525
S'LU'
p5526
sS'LXG'
p5527
S'L8'
p5528
sS'LXF'
p5529
g1
sS'LXA'
p5530
g1
sS'LXO'
p5531
g1
sS'LXJ'
p5532
g1
sS'JFS'
p5533
g1
sS'JFU'
p5534
g1
sS'ZBA'
p5535
g1
sS'WAN'
p5536
S'KW'
p5537
sS'WAM'
p5538
g1
sS'WAL'
p5539
g1
sS'WAK'
p5540
S'K5'
p5541
sS'WAG'
p5542
g1
sS'WAF'
p5543
g1
sS'WAE'
p5544
g1
sS'WAD'
p5545
g1
sS'WAC'
p5546
g1
sS'WAB'
p5547
g1
sS'WAA'
p5548
g1
sS'WAY'
p5549
g1
sS'WAW'
p5550
g1
sS'WAV'
p5551
g1
sS'WAT'
p5552
g1
sS'WAS'
p5553
g1
sS'WAR'
p5554
g1
sS'WAP'
p5555
g1
sS'LCY'
p5556
g1
sS'XXS'
p5557
g1
sS'XXV'
p5558
g1
sS'XXX'
p5559
g1
sS'LCN'
p5560
g1
sS'RNR'
p5561
g1
sS'HBA'
p5562
g1
sS'SXA'
p5563
g1
sS'SXC'
p5564
g1
sS'SXE'
p5565
g1
sS'SXM'
p5566
g1
sS'SXP'
p5567
g1
sS'VVM'
p5568
S'ZG'
p5569
sS'SXS'
p5570
S'XQ'
p5571
sS'SXT'
p5572
g1
sS'SXX'
p5573
g1
sS'VVF'
p5574
g1
sS'VVA'
p5575
g1
sS'JVK'
p5576
g1
sS'KLE'
p5577
g1
sS'KLG'
p5578
g1
sS'ESR'
p5579
S'ZE'
p5580
sS'KLC'
p5581
S'WA'
p5582
sS'QVR'
p5583
g1
sS'TRI'
p5584
g1
sS'TRH'
p5585
g1
sS'TRJ'
p5586
g1
sS'TRM'
p5587
g1
sS'PYN'
p5588
g1
sS'TRO'
p5589
g1
sS'TRN'
p5590
g1
sS'TRA'
p5591
S'HV'
p5592
sS'TRC'
p5593
g1
sS'TRB'
p5594
g1
sS'TRD'
p5595
g1
sS'TRG'
p5596
g1
sS'TRF'
p5597
g1
sS'TRY'
p5598
g1
sS'TRZ'
p5599
S'T9'
p5600
sS'TRQ'
p5601
g1
sS'TRP'
p5602
g1
sS'TRS'
p5603
S'FL'
p5604
sS'TRR'
p5605
g1
sS'TRU'
p5606
g1
sS'TRT'
p5607
g1
sS'TRW'
p5608
g1
sS'HTG'
p5609
g1
sS'HTE'
p5610
g1
sS'HTC'
p5611
g1
sS'HTA'
p5612
S'9I'
p5613
sS'HTO'
p5614
g1
sS'HTN'
p5615
g1
sS'HTL'
p5616
g1
sS'HTI'
p5617
g1
sS'HTT'
p5618
g1
sS'HTS'
p5619
g1
sS'HTR'
p5620
g1
sS'HTP'
p5621
g1
sS'HDR'
p5622
g1
sS'ODY'
p5623
g1
sS'UEJ'
p5624
g1
sS'UED'
p5625
g1
sS'ODS'
p5626
g1
sS'UEA'
p5627
g1
sS'ODI'
p5628
g1
sS'ESI'
p5629
g1
sS'UES'
p5630
g1
sS'ELJ'
p5631
g1
sS'ELH'
p5632
g1
sS'RDV'
p5633
g1
sS'ELO'
p5634
S'K2'
p5635
sS'ELL'
p5636
S'OV'
p5637
sS'RDR'
p5638
g1
sS'ELB'
p5639
g1
sS'ELA'
p5640
S'DK'
p5641
sS'ELG'
p5642
S'E8'
p5643
sS'RDZ'
p5644
g1
sS'RDE'
p5645
g1
sS'RDD'
p5646
g1
sS'ELX'
p5647
g1
sS'ELY'
p5648
S'LY'
p5649
sS'ELR'
p5650
g1
sS'ELS'
p5651
g1
sS'ELV'
p5652
g1
sS'ELW'
p5653
g1
sS'RDK'
p5654
g1
sS'LEA'
p5655
g1
sS'LEB'
p5656
g1
sS'LEC'
p5657
g1
sS'FBW'
p5658
g1
sS'LEE'
p5659
g1
sS'LEG'
p5660
g1
sS'LEJ'
p5661
g1
sS'LEL'
p5662
g1
sS'LEM'
p5663
g1
sS'LEN'
p5664
g1
sS'LEP'
p5665
g1
sS'FBA'
p5666
g1
sS'LET'
p5667
g1
sS'FBF'
p5668
g1
sS'LEX'
p5669
g1
sS'NGP'
p5670
g1
sS'FBO'
p5671
g1
sS'HDA'
p5672
S'KA'
p5673
sS'SGY'
p5674
S'N5'
p5675
sS'SGX'
p5676
g1
sS'SGP'
p5677
g1
sS'SGS'
p5678
g1
sS'SGR'
p5679
S'W9'
p5680
sS'SGU'
p5681
g1
sS'SGT'
p5682
g1
sS'SGV'
p5683
g1
sS'SGI'
p5684
g1
sS'SGH'
p5685
g1
sS'SGK'
p5686
g1
sS'SGM'
p5687
g1
sS'SGN'
p5688
g1
sS'SGA'
p5689
g1
sS'SGC'
p5690
g1
sS'SGB'
p5691
g1
sS'SGD'
p5692
g1
sS'SGF'
p5693
g1
sS'ICJ'
p5694
g1
sS'CNT'
p5695
g1
sS'CNU'
p5696
g1
sS'CNR'
p5697
g1
sS'CNS'
p5698
g1
sS'ICM'
p5699
g1
sS'ICL'
p5700
S'5C'
p5701
sS'ICC'
p5702
g1
sS'ICB'
p5703
g1
sS'ICA'
p5704
g1
sS'ICG'
p5705
g1
sS'CNX'
p5706
g1
sS'ICD'
p5707
g1
sS'CNG'
p5708
g1
sS'CND'
p5709
g1
sS'CNE'
p5710
g1
sS'CNB'
p5711
g1
sS'CNC'
p5712
g1
sS'CNA'
p5713
S'7N'
p5714
sS'ICS'
p5715
g1
sS'ICR'
p5716
g1
sS'CNL'
p5717
g1
sS'ICP'
p5718
g1
sS'IBC'
p5719
g1
sS'ICV'
p5720
S'C8'
p5721
sS'CNH'
p5722
g1
sS'ICT'
p5723
S'RS'
p5724
sS'PFA'
p5725
g1
sS'PFI'
p5726
g1
sS'DXP'
p5727
g1
sS'PFS'
p5728
g1
sS'PFR'
p5729
g1
sS'PFT'
p5730
g1
sS'DXH'
p5731
g1
sS'PFZ'
p5732
g1
sS'RYL'
p5733
S'V5'
p5734
sS'GIQ'
p5735
g1
sS'GIP'
p5736
S'2U'
p5737
sS'MJL'
p5738
g1
sS'MJM'
p5739
g1
sS'MJN'
p5740
S'RS'
p5741
sS'GIZ'
p5742
g1
sS'GIY'
p5743
g1
sS'GIG'
p5744
g1
sS'GIF'
p5745
S'J9'
p5746
sS'CDG'
p5747
S'SC'
p5748
sS'GIC'
p5749
g1
sS'GIB'
p5750
g1
sS'MJR'
p5751
g1
sS'EOL'
p5752
g1
sS'GIK'
p5753
g1
sS'GIJ'
p5754
g1
sS'GIH'
p5755
g1
sS'AHC'
p5756
g1
sS'NPO'
p5757
g1
sS'AHA'
p5758
S'GD'
p5759
sS'AHF'
p5760
g1
sS'AHG'
p5761
g1
sS'AHD'
p5762
g1
sS'AHE'
p5763
g1
sS'AHK'
p5764
S'LD'
p5765
sS'AHH'
p5766
g1
sS'AHI'
p5767
g1
sS'AHN'
p5768
g1
sS'NPC'
p5769
g1
sS'AHM'
p5770
g1
sS'AHS'
p5771
g1
sS'AHP'
p5772
g1
sS'AHW'
p5773
S'HT'
p5774
sS'AHT'
p5775
g1
sS'AHU'
p5776
g1
sS'NPT'
p5777
g1
sS'AHY'
p5778
S'J2'
p5779
sS'NPR'
p5780
g1
sS'CDI'
p5781
g1
sS'CDU'
p5782
g1
sS'CDP'
p5783
S'Q6'
p5784
sS'CDR'
p5785
g1
sS'KPA'
p5786
S'VD'
p5787
sS'KPH'
p5788
g1
sS'LZP'
p5789
g1
sS'LZR'
p5790
g1
sS'LZT'
p5791
g1
sS'LZA'
p5792
g1
sS'LZB'
p5793
S'FB'
p5794
sS'SHO'
p5795
g1
sS'MGB'
p5796
g1
sS'GZD'
p5797
g1
sS'GZA'
p5798
g1
sS'IBR'
p5799
g1
sS'MGS'
p5800
g1
sS'MGR'
p5801
g1
sS'WCP'
p5802
S'FE'
p5803
sS'WCR'
p5804
g1
sS'WCW'
p5805
S'YH'
p5806
sS'WCY'
p5807
g1
sS'WCA'
p5808
g1
sS'WCC'
p5809
g1
sS'WCB'
p5810
g1
sS'WCG'
p5811
g1
sS'WCO'
p5812
g1
sS'GZP'
p5813
S'4G'
p5814
sS'MBC'
p5815
g1
sS'MNZ'
p5816
g1
sS'SZA'
p5817
g1
sS'SZT'
p5818
g1
sS'JTY'
p5819
S'VJ'
p5820
sS'JTX'
p5821
g1
sS'JTU'
p5822
g1
sS'JTT'
p5823
g1
sS'JTS'
p5824
g1
sS'JTR'
p5825
g1
sS'JTM'
p5826
g1
sS'JTL'
p5827
g1
sS'JTN'
p5828
g1
sS'JTI'
p5829
g1
sS'JTE'
p5830
g1
sS'JTG'
p5831
g1
sS'JTA'
p5832
S'NU'
p5833
sS'JTC'
p5834
g1
sS'PCX'
p5835
g1
sS'QTR'
p5836
S'QR'
p5837
sS'QTX'
p5838
g1
sS'PCR'
p5839
g1
sS'CMF'
p5840
g1
sS'VTA'
p5841
S'VT'
p5842
sS'TLR'
p5843
g1
sS'VTC'
p5844
g1
sS'GTC'
p5845
g1
sS'TLW'
p5846
S'L9'
p5847
sS'TLV'
p5848
g1
sS'VTG'
p5849
g1
sS'TLT'
p5850
g1
sS'GTH'
p5851
g1
sS'GTI'
p5852
S'5Y'
p5853
sS'VTK'
p5854
g1
sS'TLX'
p5855
g1
sS'VTM'
p5856
g1
sS'VTL'
p5857
g1
sS'GTP'
p5858
g1
sS'TLB'
p5859
g1
sS'VTS'
p5860
g1
sS'TLF'
p5861
g1
sS'TLE'
p5862
g1
sS'VTV'
p5863
g1
sS'TLK'
p5864
S'Q4'
p5865
sS'GTY'
p5866
g1
sS'TLO'
p5867
g1
sS'TLL'
p5868
g1
sS'HVK'
p5869
g1
sS'HVL'
p5870
g1
sS'HVN'
p5871
S'VN'
p5872
sS'HVA'
p5873
g1
sS'HVY'
p5874
S'HN'
p5875
sS'PCO'
p5876
S'8P'
p5877
sS'PCL'
p5878
g1
sS'PCM'
p5879
g1
sS'PCA'
p5880
g1
sS'UCS'
p5881
g1
sS'UCR'
p5882
S'DW'
p5883
sS'CMR'
p5884
g1
sS'UCC'
p5885
g1
sS'UCA'
p5886
S'C5'
p5887
sS'UCO'
p5888
g1
sS'PCE'
p5889
S'Y5'
p5890
sS'UCK'
p5891
g1
sS'UCH'
p5892
g1
sS'EJM'
p5893
g1
sS'EJO'
p5894
g1
sS'RBY'
p5895
S'V2'
p5896
sS'RBX'
p5897
g1
sS'RBW'
p5898
g1
sS'RBV'
p5899
g1
sS'RBU'
p5900
S'4Y'
p5901
sS'RBT'
p5902
g1
sS'EJA'
p5903
S'1I'
p5904
sS'EJC'
p5905
g1
sS'RBN'
p5906
g1
sS'EJX'
p5907
g1
sS'RBJ'
p5908
g1
sS'RBH'
p5909
g1
sS'EJT'
p5910
g1
sS'RBE'
p5911
g1
sS'RBD'
p5912
g1
sS'EJP'
p5913
g1
sS'RBB'
p5914
g1
sS'RBA'
p5915
S'BI'
p5916
sS'EJS'
p5917
g1
sS'LGN'
p5918
g1
sS'LGL'
p5919
S'LG'
p5920
sS'LGD'
p5921
g1
sS'ARO'
p5922
g1
sS'LGW'
p5923
S'HE'
p5924
sS'LGT'
p5925
g1
sS'LGU'
p5926
g1
sS'VYT'
p5927
g1
sS'OFA'
p5928
g1
sS'IAI'
p5929
g1
sS'IAK'
p5930
g1
sS'IAJ'
p5931
g1
sS'IAE'
p5932
g1
sS'IAD'
p5933
g1
sS'IAG'
p5934
g1
sS'IAF'
p5935
g1
sS'IAA'
p5936
S'IO'
p5937
sS'IAC'
p5938
S'IC'
p5939
sS'FFT'
p5940
S'F9'
p5941
sS'IAY'
p5942
g1
sS'IAX'
p5943
g1
sS'IAW'
p5944
S'IA'
p5945
sS'ILN'
p5946
S'D6'
p5947
sS'IAR'
p5948
g1
sS'GSA'
p5949
g1
sS'PHI'
p5950
g1
sS'PHH'
p5951
g1
sS'PHO'
p5952
g1
sS'PHN'
p5953
g1
sS'PHM'
p5954
g1
sS'PHL'
p5955
g1
sS'PHC'
p5956
g1
sS'PHB'
p5957
g1
sS'PHA'
p5958
g1
sS'PHG'
p5959
g1
sS'PHE'
p5960
g1
sS'PHD'
p5961
g1
sS'PHY'
p5962
g1
sS'PHS'
p5963
g1
sS'PHR'
p5964
g1
sS'PHW'
p5965
g1
sS'PHV'
p5966
g1
sS'PHU'
p5967
g1
sS'PHT'
p5968
g1
sS'TIE'
p5969
g1
sS'GSL'
p5970
g1
sS'MHN'
p5971
g1
sS'MHL'
p5972
g1
sS'FFP'
p5973
g1
sS'MHC'
p5974
g1
sS'MHA'
p5975
g1
sS'GKA'
p5976
g1
sS'MHU'
p5977
g1
sS'MHS'
p5978
g1
sS'AND'
p5979
g1
sS'ANE'
p5980
S'YW'
p5981
sS'ANG'
p5982
S'PX'
p5983
sS'ANA'
p5984
S'NH'
p5985
sS'ANB'
p5986
g1
sS'ANC'
p5987
g1
sS'ANL'
p5988
g1
sS'ANM'
p5989
g1
sS'ANO'
p5990
S'TL'
p5991
sS'ANH'
p5992
g1
sS'ANI'
p5993
g1
sS'NVY'
p5994
g1
sS'ANK'
p5995
S'EL'
p5996
sS'ANT'
p5997
S'4N'
p5998
sS'ANV'
p5999
g1
sS'NVD'
p6000
g1
sS'NVC'
p6001
g1
sS'ANQ'
p6002
g1
sS'NVA'
p6003
g1
sS'ANS'
p6004
g1
sS'NVM'
p6005
g1
sS'NVL'
p6006
g1
sS'ANX'
p6007
g1
sS'NVJ'
p6008
g1
sS'NVI'
p6009
g1
sS'KRP'
p6010
S'V3'
p6011
sS'KRV'
p6012
g1
sS'KRT'
p6013
g1
sS'KRH'
p6014
g1
sS'KRI'
p6015
S'K9'
p6016
sS'KRN'
p6017
g1
sS'KRO'
p6018
g1
sS'KRM'
p6019
g1
sS'KRB'
p6020
g1
sS'KRC'
p6021
g1
sS'KRA'
p6022
g1
sS'KRF'
p6023
g1
sS'KRG'
p6024
g1
sS'KRE'
p6025
g1
sS'EDC'
p6026
g1
sS'UHL'
p6027
g1
sS'OKA'
p6028
g1
sS'YOG'
p6029
g1
sS'LLR'
p6030
S'CD'
p6031
sS'OKJ'
p6032
g1
sS'ILS'
p6033
g1
sS'OKL'
p6034
g1
sS'GLJ'
p6035
g1
sS'GLA'
p6036
S'ZK'
p6037
sS'GLD'
p6038
g1
sS'WML'
p6039
g1
sS'AKT'
p6040
S'V2'
p6041
sS'GLQ'
p6042
g1
sS'GLR'
p6043
g1
sS'GLT'
p6044
g1
sS'GLU'
p6045
g1
sS'VXP'
p6046
g1
sS'JRF'
p6047
g1
sS'JRN'
p6048
g1
sS'JRI'
p6049
g1
sS'TNT'
p6050
g1
sS'TNW'
p6051
g1
sS'TNV'
p6052
g1
sS'GVN'
p6053
g1
sS'TNP'
p6054
g1
sS'TNR'
p6055
g1
sS'TNY'
p6056
g1
sS'TNX'
p6057
g1
sS'TNE'
p6058
g1
sS'TND'
p6059
g1
sS'TNG'
p6060
g1
sS'TNF'
p6061
g1
sS'TNA'
p6062
S'GE'
p6063
sS'TNC'
p6064
g1
sS'TNB'
p6065
g1
sS'TNM'
p6066
S'3P'
p6067
sS'TNL'
p6068
g1
sS'TNO'
p6069
g1
sS'TNI'
p6070
g1
sS'HHS'
p6071
g1
sS'HHP'
p6072
g1
sS'NKF'
p6073
S'8N'
p6074
sS'NKL'
p6075
g1
sS'HHA'
p6076
g1
sS'NKS'
p6077
S'NK'
p6078
sS'NKV'
p6079
g1
sS'ROA'
p6080
S'QQ'
p6081
sS'HHI'
p6082
S'4R'
p6083
sS'HHH'
p6084
g1
sS'HHO'
p6085
g1
sS'HHN'
p6086
S'HR'
p6087
sS'UAR'
p6088
g1
sS'UAI'
p6089
g1
sS'UAH'
p6090
g1
sS'UAK'
p6091
g1
sS'UAJ'
p6092
g1
sS'UAL'
p6093
S'UA'
p6094
sS'UAA'
p6095
g1
sS'UAC'
p6096
g1
sS'UAB'
p6097
g1
sS'UAE'
p6098
S'EK'
p6099
sS'UAD'
p6100
g1
sS'UAG'
p6101
g1
sS'UAF'
p6102
g1
sS'EHR'
p6103
g1
sS'EHD'
p6104
g1
sS'EHA'
p6105
g1
sS'ROR'
p6106
g1
sS'LAL'
p6107
g1
sS'LAM'
p6108
S'TM'
p6109
sS'LAN'
p6110
S'LA'
p6111
sS'LAO'
p6112
S'QV'
p6113
sS'LAH'
p6114
g1
sS'FFY'
p6115
g1
sS'LAD'
p6116
g1
sS'LAF'
p6117
g1
sS'SBU'
p6118
S'PV'
p6119
sS'FFS'
p6120
g1
sS'LAA'
p6121
S'LN'
p6122
sS'LAB'
p6123
S'JF'
p6124
sS'LAC'
p6125
g1
sS'FFM'
p6126
S'FY'
p6127
sS'FFL'
p6128
g1
sS'LAY'
p6129
g1
sS'FFI'
p6130
g1
sS'FFH'
p6131
g1
sS'FFG'
p6132
g1
sS'LAU'
p6133
g1
sS'LAW'
p6134
g1
sS'LAP'
p6135
S'PZ'
p6136
sS'LAQ'
p6137
S'LQ'
p6138
sS'LAR'
p6139
g1
sS'DTH'
p6140
S'SF'
p6141
sS'DTN'
p6142
g1
sS'DTA'
p6143
S'DT'
p6144
sS'DTY'
p6145
g1
sS'DTR'
p6146
S'DX'
p6147
sS'DTV'
p6148
g1
sS'SBB'
p6149
g1
sS'IGS'
p6150
g1
sS'IGA'
p6151
g1
sS'MMD'
p6152
g1
sS'IGO'
p6153
S'6E'
p6154
sS'IGN'
p6155
g1
sS'MMG'
p6156
g1
sS'CBB'
p6157
g1
sS'CBC'
p6158
g1
sS'CBA'
p6159
g1
sS'CBF'
p6160
S'CJ'
p6161
sS'CBD'
p6162
g1
sS'CBE'
p6163
g1
sS'PJE'
p6164
g1
sS'CBI'
p6165
g1
sS'CBN'
p6166
g1
sS'CBO'
p6167
g1
sS'CBL'
p6168
g1
sS'CBM'
p6169
g1
sS'CBR'
p6170
g1
sS'CBS'
p6171
g1
sS'CBV'
p6172
g1
sS'MMC'
p6173
g1
sS'CBT'
p6174
g1
sS'CBY'
p6175
g1
sS'PJP'
p6176
g1
sS'PJS'
p6177
g1
sS'BZS'
p6178
g1
sS'BZZ'
p6179
g1
sS'BZF'
p6180
g1
sS'BZD'
p6181
g1
sS'BZA'
p6182
g1
sS'BZH'
p6183
S'DB'
p6184
sS'MVR'
p6185
g1
sS'MVY'
p6186
g1
sS'MVA'
p6187
g1
sS'MVD'
p6188
S'KV'
p6189
sS'MVG'
p6190
g1
sS'MVI'
p6191
g1
sS'MVK'
p6192
g1
sS'MVL'
p6193
S'H5'
p6194
sS'MVM'
p6195
g1
sS'MVN'
p6196
g1
sS'ALN'
p6197
g1
sS'NTX'
p6198
g1
sS'ALL'
p6199
g1
sS'ALM'
p6200
g1
sS'ALJ'
p6201
g1
sS'ALK'
p6202
S'UL'
p6203
sS'ALF'
p6204
g1
sS'ALG'
p6205
g1
sS'NTS'
p6206
g1
sS'ALE'
p6207
g1
sS'ALB'
p6208
g1
sS'ALC'
p6209
g1
sS'NTW'
p6210
S'CE'
p6211
sS'NTV'
p6212
g1
sS'NTH'
p6213
g1
sS'NTK'
p6214
g1
sS'NTJ'
p6215
S'2N'
p6216
sS'NTM'
p6217
g1
sS'NTL'
p6218
g1
sS'ALX'
p6219
S'EO'
p6220
sS'ALY'
p6221
g1
sS'NTA'
p6222
g1
sS'ALW'
p6223
g1
sS'NTC'
p6224
g1
sS'NTB'
p6225
g1
sS'ALR'
p6226
g1
sS'NTD'
p6227
g1
sS'NTG'
p6228
g1
sS'ALQ'
p6229
g1
sS'KOP'
p6230
g1
sS'KOR'
p6231
S'JS'
p6232
sS'KOV'
p6233
g1
sS'KTV'
p6234
g1
sS'KTR'
p6235
g1
sS'KTS'
p6236
g1
sS'KTL'
p6237
g1
sS'KTN'
p6238
g1
sS'KTK'
p6239
g1
sS'KTA'
p6240
g1
sS'KTB'
p6241
g1
sS'KTC'
p6242
g1
sS'LBT'
p6243
S'BJ'
p6244
sS'LBY'
p6245
g1
sS'PMT'
p6246
S'U4'
p6247
sS'CGH'
p6248
g1
sS'WOW'
p6249
S'SZ'
p6250
sS'CGK'
p6251
g1
sS'WOL'
p6252
g1
sS'WON'
p6253
S'1W'
p6254
sS'WOK'
p6255
g1
sS'WOA'
p6256
S'WO'
p6257
sS'CGO'
p6258
g1
sS'CGN'
p6259
S'2Z'
p6260
sS'CGE'
p6261
g1
sS'CGD'
p6262
g1
sS'SKV'
p6263
S'RS'
p6264
sS'SKP'
p6265
g1
sS'PME'
p6266
g1
sS'CGP'
p6267
S'8L'
p6268
sS'CGR'
p6269
g1
sS'SKD'
p6270
g1
sS'SSF'
p6271
g1
sS'SKB'
p6272
S'SX'
p6273
sS'IZA'
p6274
g1
sS'IZG'
p6275
g1
sS'IZM'
p6276
S'H9'
p6277
sS'JPO'
p6278
g1
sS'JPN'
p6279
g1
sS'JPA'
p6280
g1
sS'GET'
p6281
g1
sS'JPQ'
p6282
g1
sS'JPR'
p6283
g1
sS'BGA'
p6284
g1
sS'BGD'
p6285
S'B9'
p6286
sS'BGF'
p6287
g1
sS'BGG'
p6288
g1
sS'BGH'
p6289
g1
sS'MFL'
p6290
g1
sS'BGK'
p6291
g1
sS'BGL'
p6292
S'A8'
p6293
sS'BGM'
p6294
g1
sS'BGR'
p6295
g1
sS'BGT'
p6296
g1
sS'GEC'
p6297
S'LH'
p6298
sS'TCL'
p6299
g1
sS'MFS'
p6300
g1
sS'GPM'
p6301
g1
sS'VXN'
p6302
g1
sS'THZ'
p6303
g1
sS'THY'
p6304
S'TK'
p6305
sS'GPD'
p6306
g1
sS'GPE'
p6307
g1
sS'THU'
p6308
g1
sS'TCI'
p6309
S'JY'
p6310
sS'THR'
p6311
g1
sS'GPC'
p6312
g1
sS'THO'
p6313
g1
sS'THN'
p6314
g1
sS'THM'
p6315
g1
sS'THK'
p6316
g1
sS'THJ'
p6317
g1
sS'THG'
p6318
g1
sS'THF'
p6319
g1
sS'THE'
p6320
g1
sS'THC'
p6321
g1
sS'MFZ'
p6322
g1
sS'THA'
p6323
S'TG'
p6324
sS'HJT'
p6325
g1
sS'SNS'
p6326
g1
sS'NIC'
p6327
g1
sS'NIG'
p6328
S'AJ'
p6329
sS'NID'
p6330
g1
sS'TCC'
p6331
g1
sS'HJE'
p6332
g1
sS'HJA'
p6333
g1
sS'NIR'
p6334
g1
sS'NIS'
p6335
g1
sS'NIT'
p6336
g1
sS'FDA'
p6337
g1
sS'FDB'
p6338
S'FZ'
p6339
sS'FDF'
p6340
g1
sS'FDL'
p6341
g1
sS'FDO'
p6342
g1
sS'FDN'
p6343
g1
sS'FDP'
p6344
g1
sS'FDS'
p6345
g1
sS'FDR'
p6346
g1
sS'FDX'
p6347
S'FX'
p6348
sS'MBE'
p6349
g1
sS'QXE'
p6350
S'QX'
p6351
sS'EFS'
p6352
g1
sS'EFT'
p6353
g1
sS'EFL'
p6354
S'EY'
p6355
sS'EFA'
p6356
S'EF'
p6357
sS'EFC'
p6358
g1
sS'EFD'
p6359
g1
sS'EFG'
p6360
g1
sS'LCT'
p6361
g1
sS'LCR'
p6362
g1
sS'LCS'
p6363
g1
sS'RNM'
p6364
g1
sS'RNB'
p6365
g1
sS'RNA'
p6366
S'RA'
p6367
sS'RNG'
p6368
g1
sS'RNE'
p6369
S'2O'
p6370
sS'RND'
p6371
g1
sS'LCG'
p6372
g1
sS'LCD'
p6373
S'ZE'
p6374
sS'RNX'
p6375
S'1T'
p6376
sS'LCB'
p6377
g1
sS'LCC'
p6378
g1
sS'LCA'
p6379
g1
sS'RNS'
p6380
g1
sS'LCO'
p6381
g1
sS'LCM'
p6382
g1
sS'RNV'
p6383
S'U8'
p6384
sS'LCH'
p6385
g1
sS'DVN'
p6386
g1
sS'DVI'
p6387
g1
sS'DVA'
p6388
S'DH'
p6389
sS'DVB'
p6390
g1
sS'MBA'
p6391
g1
sS'OBK'
p6392
g1
sS'IEP'
p6393
g1
sS'OBA'
p6394
g1
sS'MBB'
p6395
g1
sS'CDE'
p6396
g1
sS'PLU'
p6397
g1
sS'PLT'
p6398
g1
sS'PLS'
p6399
g1
sS'PLR'
p6400
S'J3'
p6401
sS'CDL'
p6402
g1
sS'CDM'
p6403
g1
sS'CDN'
p6404
g1
sS'PLZ'
p6405
g1
sS'PLY'
p6406
g1
sS'PLX'
p6407
g1
sS'CDT'
p6408
g1
sS'PLF'
p6409
g1
sS'CDV'
p6410
g1
sS'PLC'
p6411
g1
sS'PLB'
p6412
S'DJ'
p6413
sS'PLA'
p6414
g1
sS'CDS'
p6415
g1
sS'PLN'
p6416
g1
sS'PLM'
p6417
g1
sS'PLL'
p6418
g1
sS'PLK'
p6419
S'FV'
p6420
sS'CDY'
p6421
g1
sS'PLI'
p6422
S'PL'
p6423
sS'BXI'
p6424
g1
sS'BXH'
p6425
g1
sS'BXA'
p6426
g1
sS'WZZ'
p6427
g1
sS'TPN'
p6428
g1
sS'MTZ'
p6429
g1
sS'MTX'
p6430
g1
sS'MTY'
p6431
g1
sS'MTR'
p6432
g1
sS'MTS'
p6433
g1
sS'MTP'
p6434
g1
sS'MTV'
p6435
g1
sS'MTJ'
p6436
g1
sS'MTK'
p6437
g1
sS'MTH'
p6438
g1
sS'MTI'
p6439
g1
sS'MTN'
p6440
g1
sS'MTO'
p6441
g1
sS'MTL'
p6442
g1
sS'MTB'
p6443
g1
sS'MTC'
p6444
S'N4'
p6445
sS'MTA'
p6446
g1
sS'MTF'
p6447
g1
sS'MTG'
p6448
g1
sS'MTD'
p6449
g1
sS'MTE'
p6450
g1
sS'ARP'
p6451
g1
sS'ARQ'
p6452
g1
sS'ARR'
p6453
S'QN'
p6454
sS'ARS'
p6455
g1
sS'ART'
p6456
g1
sS'ARV'
p6457
g1
sS'ARW'
p6458
g1
sS'ARX'
p6459
g1
sS'ARY'
p6460
g1
sS'ARZ'
p6461
g1
sS'ARA'
p6462
g1
sS'ARB'
p6463
g1
sS'ARC'
p6464
g1
sS'ARD'
p6465
S'2B'
p6466
sS'ARE'
p6467
S'4C'
p6468
sS'ARF'
p6469
S'GV'
p6470
sS'ARG'
p6471
S'AR'
p6472
sS'ARH'
p6473
g1
sS'HRI'
p6474
g1
sS'ARJ'
p6475
g1
sS'ARK'
p6476
g1
sS'ARL'
p6477
g1
sS'ARM'
p6478
g1
sS'TPR'
p6479
g1
sS'TPX'
p6480
g1
sS'LHC'
p6481
g1
sS'KVK'
p6482
g1
sS'KVR'
p6483
g1
sS'KVS'
p6484
g1
sS'ZZM'
p6485
g1
sS'WIG'
p6486
g1
sS'WIF'
p6487
S'WF'
p6488
sS'WIA'
p6489
g1
sS'WIN'
p6490
g1
sS'WIL'
p6491
g1
sS'WIW'
p6492
g1
sS'WIT'
p6493
g1
sS'WIS'
p6494
g1
sS'WIZ'
p6495
g1
sS'UZA'
p6496
g1
sS'UZB'
p6497
S'HY'
p6498
sS'UZS'
p6499
g1
sS'MLB'
p6500
g1
s.